
byggern.elf:     file format elf32-avr

Sections:
Idx Name          Size      VMA       LMA       File off  Algn
  0 .data         00000016  00800100  00000e5a  00000eee  2**0
                  CONTENTS, ALLOC, LOAD, DATA
  1 .text         00000e5a  00000000  00000000  00000094  2**1
                  CONTENTS, ALLOC, LOAD, READONLY, CODE
  2 .bss          0000000c  00800116  00800116  00000f04  2**0
                  ALLOC
  3 .comment      0000005c  00000000  00000000  00000f04  2**0
                  CONTENTS, READONLY
  4 .debug_aranges 00000088  00000000  00000000  00000f60  2**0
                  CONTENTS, READONLY, DEBUGGING
  5 .debug_info   0000041e  00000000  00000000  00000fe8  2**0
                  CONTENTS, READONLY, DEBUGGING
  6 .debug_abbrev 0000026f  00000000  00000000  00001406  2**0
                  CONTENTS, READONLY, DEBUGGING
  7 .debug_line   00000315  00000000  00000000  00001675  2**0
                  CONTENTS, READONLY, DEBUGGING
  8 .debug_frame  000000f8  00000000  00000000  0000198c  2**2
                  CONTENTS, READONLY, DEBUGGING
  9 .debug_str    00000224  00000000  00000000  00001a84  2**0
                  CONTENTS, READONLY, DEBUGGING
 10 .debug_loc    00000198  00000000  00000000  00001ca8  2**0
                  CONTENTS, READONLY, DEBUGGING
 11 .debug_ranges 00000058  00000000  00000000  00001e40  2**0
                  CONTENTS, READONLY, DEBUGGING

Disassembly of section .text:

00000000 <__vectors>:
   0:	0c 94 38 00 	jmp	0x70	; 0x70 <__ctors_end>
   4:	0c 94 55 00 	jmp	0xaa	; 0xaa <__bad_interrupt>
   8:	0c 94 55 00 	jmp	0xaa	; 0xaa <__bad_interrupt>
   c:	0c 94 55 00 	jmp	0xaa	; 0xaa <__bad_interrupt>
  10:	0c 94 55 00 	jmp	0xaa	; 0xaa <__bad_interrupt>
  14:	0c 94 55 00 	jmp	0xaa	; 0xaa <__bad_interrupt>
  18:	0c 94 55 00 	jmp	0xaa	; 0xaa <__bad_interrupt>
  1c:	0c 94 55 00 	jmp	0xaa	; 0xaa <__bad_interrupt>
  20:	0c 94 55 00 	jmp	0xaa	; 0xaa <__bad_interrupt>
  24:	0c 94 55 00 	jmp	0xaa	; 0xaa <__bad_interrupt>
  28:	0c 94 55 00 	jmp	0xaa	; 0xaa <__bad_interrupt>
  2c:	0c 94 55 00 	jmp	0xaa	; 0xaa <__bad_interrupt>
  30:	0c 94 55 00 	jmp	0xaa	; 0xaa <__bad_interrupt>
  34:	0c 94 55 00 	jmp	0xaa	; 0xaa <__bad_interrupt>
  38:	0c 94 55 00 	jmp	0xaa	; 0xaa <__bad_interrupt>
  3c:	0c 94 55 00 	jmp	0xaa	; 0xaa <__bad_interrupt>
  40:	0c 94 55 00 	jmp	0xaa	; 0xaa <__bad_interrupt>
  44:	0c 94 55 00 	jmp	0xaa	; 0xaa <__bad_interrupt>
  48:	0c 94 55 00 	jmp	0xaa	; 0xaa <__bad_interrupt>
  4c:	0c 94 55 00 	jmp	0xaa	; 0xaa <__bad_interrupt>
  50:	0c 94 55 00 	jmp	0xaa	; 0xaa <__bad_interrupt>
  54:	0c 94 55 00 	jmp	0xaa	; 0xaa <__bad_interrupt>
  58:	0c 94 55 00 	jmp	0xaa	; 0xaa <__bad_interrupt>
  5c:	0c 94 55 00 	jmp	0xaa	; 0xaa <__bad_interrupt>
  60:	0c 94 55 00 	jmp	0xaa	; 0xaa <__bad_interrupt>
  64:	0c 94 55 00 	jmp	0xaa	; 0xaa <__bad_interrupt>
  68:	0c 94 55 00 	jmp	0xaa	; 0xaa <__bad_interrupt>
  6c:	0c 94 55 00 	jmp	0xaa	; 0xaa <__bad_interrupt>

00000070 <__ctors_end>:
  70:	11 24       	eor	r1, r1
  72:	1f be       	out	0x3f, r1	; 63
  74:	cf ef       	ldi	r28, 0xFF	; 255
  76:	d4 e0       	ldi	r29, 0x04	; 4
  78:	de bf       	out	0x3e, r29	; 62
  7a:	cd bf       	out	0x3d, r28	; 61

0000007c <__do_copy_data>:
  7c:	11 e0       	ldi	r17, 0x01	; 1
  7e:	a0 e0       	ldi	r26, 0x00	; 0
  80:	b1 e0       	ldi	r27, 0x01	; 1
  82:	ea e5       	ldi	r30, 0x5A	; 90
  84:	fe e0       	ldi	r31, 0x0E	; 14
  86:	02 c0       	rjmp	.+4      	; 0x8c <__do_copy_data+0x10>
  88:	05 90       	lpm	r0, Z+
  8a:	0d 92       	st	X+, r0
  8c:	a6 31       	cpi	r26, 0x16	; 22
  8e:	b1 07       	cpc	r27, r17
  90:	d9 f7       	brne	.-10     	; 0x88 <__do_copy_data+0xc>

00000092 <__do_clear_bss>:
  92:	21 e0       	ldi	r18, 0x01	; 1
  94:	a6 e1       	ldi	r26, 0x16	; 22
  96:	b1 e0       	ldi	r27, 0x01	; 1
  98:	01 c0       	rjmp	.+2      	; 0x9c <.do_clear_bss_start>

0000009a <.do_clear_bss_loop>:
  9a:	1d 92       	st	X+, r1

0000009c <.do_clear_bss_start>:
  9c:	a2 32       	cpi	r26, 0x22	; 34
  9e:	b2 07       	cpc	r27, r18
  a0:	e1 f7       	brne	.-8      	; 0x9a <.do_clear_bss_loop>
  a2:	0e 94 6c 00 	call	0xd8	; 0xd8 <main>
  a6:	0c 94 2b 07 	jmp	0xe56	; 0xe56 <_exit>

000000aa <__bad_interrupt>:
  aa:	0c 94 00 00 	jmp	0	; 0x0 <__vectors>

000000ae <status_led_init>:

static int status = 0;
//static int blink_activated = 0;

void status_led_init(){
	DDRA |= (1<<DDA0);		//defines port A pin 0 as output 
  ae:	d0 9a       	sbi	0x1a, 0	; 26
  b0:	08 95       	ret

000000b2 <status_led_on>:
}

void status_led_on(){
	PORTA |= (1<<PA0);
  b2:	d8 9a       	sbi	0x1b, 0	; 27
	status = 1;
  b4:	81 e0       	ldi	r24, 0x01	; 1
  b6:	90 e0       	ldi	r25, 0x00	; 0
  b8:	90 93 17 01 	sts	0x0117, r25
  bc:	80 93 16 01 	sts	0x0116, r24
  c0:	08 95       	ret

000000c2 <status_led_off>:
}

void status_led_off(){
	PORTA &= ~(1<<PA0);
  c2:	d8 98       	cbi	0x1b, 0	; 27
	status = 0;
  c4:	10 92 17 01 	sts	0x0117, r1
  c8:	10 92 16 01 	sts	0x0116, r1
  cc:	08 95       	ret

000000ce <status_led_get_status>:
}

int status_led_get_status(){
	return status;
}
  ce:	80 91 16 01 	lds	r24, 0x0116
  d2:	90 91 17 01 	lds	r25, 0x0117
  d6:	08 95       	ret

000000d8 <main>:



int main(void)
{
	status_led_init();
  d8:	0e 94 57 00 	call	0xae	; 0xae <status_led_init>
	USART_Init(BAUD, F_CPU);
  dc:	40 e0       	ldi	r20, 0x00	; 0
  de:	50 e0       	ldi	r21, 0x00	; 0
  e0:	66 e9       	ldi	r22, 0x96	; 150
  e2:	7a e4       	ldi	r23, 0x4A	; 74
  e4:	80 e8       	ldi	r24, 0x80	; 128
  e6:	95 e2       	ldi	r25, 0x25	; 37
  e8:	0e 94 b2 00 	call	0x164	; 0x164 <USART_Init>
	
	while(1)
    {
		status_led_on();
		printf("LED status: %d\n", status_led_get_status());
  ec:	c6 e0       	ldi	r28, 0x06	; 6
  ee:	d1 e0       	ldi	r29, 0x01	; 1
	status_led_init();
	USART_Init(BAUD, F_CPU);
	
	while(1)
    {
		status_led_on();
  f0:	0e 94 59 00 	call	0xb2	; 0xb2 <status_led_on>
		printf("LED status: %d\n", status_led_get_status());
  f4:	0e 94 67 00 	call	0xce	; 0xce <status_led_get_status>
  f8:	9f 93       	push	r25
  fa:	8f 93       	push	r24
  fc:	df 93       	push	r29
  fe:	cf 93       	push	r28
 100:	0e 94 1e 03 	call	0x63c	; 0x63c <printf>
	#else
		//round up by default
		__ticks_dc = (uint32_t)(ceil(fabs(__tmp)));
	#endif

	__builtin_avr_delay_cycles(__ticks_dc);
 104:	9f ef       	ldi	r25, 0xFF	; 255
 106:	2f ef       	ldi	r18, 0xFF	; 255
 108:	8e e0       	ldi	r24, 0x0E	; 14
 10a:	91 50       	subi	r25, 0x01	; 1
 10c:	20 40       	sbci	r18, 0x00	; 0
 10e:	80 40       	sbci	r24, 0x00	; 0
 110:	e1 f7       	brne	.-8      	; 0x10a <main+0x32>
 112:	00 c0       	rjmp	.+0      	; 0x114 <main+0x3c>
 114:	00 00       	nop
		_delay_ms(1000);
		status_led_off();
 116:	0e 94 61 00 	call	0xc2	; 0xc2 <status_led_off>
		printf("LED status: %d\n", status_led_get_status());
 11a:	0e 94 67 00 	call	0xce	; 0xce <status_led_get_status>
 11e:	9f 93       	push	r25
 120:	8f 93       	push	r24
 122:	df 93       	push	r29
 124:	cf 93       	push	r28
 126:	0e 94 1e 03 	call	0x63c	; 0x63c <printf>
 12a:	8f ef       	ldi	r24, 0xFF	; 255
 12c:	9f ef       	ldi	r25, 0xFF	; 255
 12e:	2e e0       	ldi	r18, 0x0E	; 14
 130:	81 50       	subi	r24, 0x01	; 1
 132:	90 40       	sbci	r25, 0x00	; 0
 134:	20 40       	sbci	r18, 0x00	; 0
 136:	e1 f7       	brne	.-8      	; 0x130 <main+0x58>
 138:	00 c0       	rjmp	.+0      	; 0x13a <main+0x62>
 13a:	00 00       	nop
 13c:	8d b7       	in	r24, 0x3d	; 61
 13e:	9e b7       	in	r25, 0x3e	; 62
 140:	08 96       	adiw	r24, 0x08	; 8
 142:	0f b6       	in	r0, 0x3f	; 63
 144:	f8 94       	cli
 146:	9e bf       	out	0x3e, r25	; 62
 148:	0f be       	out	0x3f, r0	; 63
 14a:	8d bf       	out	0x3d, r24	; 61
 14c:	d1 cf       	rjmp	.-94     	; 0xf0 <main+0x18>

0000014e <USART_Transmit>:



int USART_Transmit( char data, FILE* stream ){
	/* Wait for empty transmit buffer */
	while ( !( UCSR0A & (1<<UDRE0)) )	;
 14e:	5d 9b       	sbis	0x0b, 5	; 11
 150:	fe cf       	rjmp	.-4      	; 0x14e <USART_Transmit>
	/* Put data into buffer, sends the data */
	UDR0 = data;
 152:	8c b9       	out	0x0c, r24	; 12
	return 0;
}
 154:	80 e0       	ldi	r24, 0x00	; 0
 156:	90 e0       	ldi	r25, 0x00	; 0
 158:	08 95       	ret

0000015a <USART_Receive>:

int USART_Receive( FILE* stream ){
	/* Wait for data to be received */
	while ( !(UCSR0A & (1<<RXC0)) );
 15a:	5f 9b       	sbis	0x0b, 7	; 11
 15c:	fe cf       	rjmp	.-4      	; 0x15a <USART_Receive>
	/* Get and return received data from buffer */
	return UDR0;
 15e:	8c b1       	in	r24, 0x0c	; 12
}
 160:	90 e0       	ldi	r25, 0x00	; 0
 162:	08 95       	ret

00000164 <USART_Init>:

void USART_Init(unsigned int ubrr, float frq){
 164:	cf 92       	push	r12
 166:	df 92       	push	r13
 168:	ef 92       	push	r14
 16a:	ff 92       	push	r15
 16c:	cf 93       	push	r28
 16e:	df 93       	push	r29
 170:	ec 01       	movw	r28, r24
 172:	cb 01       	movw	r24, r22
 174:	ba 01       	movw	r22, r20
	ubrr = frq/16/ubrr-1;
 176:	20 e0       	ldi	r18, 0x00	; 0
 178:	30 e0       	ldi	r19, 0x00	; 0
 17a:	40 e8       	ldi	r20, 0x80	; 128
 17c:	5d e3       	ldi	r21, 0x3D	; 61
 17e:	0e 94 70 02 	call	0x4e0	; 0x4e0 <__mulsf3>
 182:	6b 01       	movw	r12, r22
 184:	7c 01       	movw	r14, r24
 186:	be 01       	movw	r22, r28
 188:	80 e0       	ldi	r24, 0x00	; 0
 18a:	90 e0       	ldi	r25, 0x00	; 0
 18c:	0e 94 e2 01 	call	0x3c4	; 0x3c4 <__floatunsisf>
 190:	9b 01       	movw	r18, r22
 192:	ac 01       	movw	r20, r24
 194:	c7 01       	movw	r24, r14
 196:	b6 01       	movw	r22, r12
 198:	0e 94 4e 01 	call	0x29c	; 0x29c <__divsf3>
 19c:	20 e0       	ldi	r18, 0x00	; 0
 19e:	30 e0       	ldi	r19, 0x00	; 0
 1a0:	40 e8       	ldi	r20, 0x80	; 128
 1a2:	5f e3       	ldi	r21, 0x3F	; 63
 1a4:	0e 94 e9 00 	call	0x1d2	; 0x1d2 <__subsf3>
 1a8:	0e 94 b6 01 	call	0x36c	; 0x36c <__fixunssfsi>
	/*Set baud rate*/
	UBRR0H = (ubrr>>8);
 1ac:	70 bd       	out	0x20, r23	; 32
	UBRR0L = ubrr;
 1ae:	69 b9       	out	0x09, r22	; 9
	
	/* Enable receiver and transmitter */
	UCSR0B = (1<<RXEN0)|(1<<TXEN0);
 1b0:	88 e1       	ldi	r24, 0x18	; 24
 1b2:	8a b9       	out	0x0a, r24	; 10
	/* Set frame format: 8data, 2stop bit */
	UCSR0C = (1<<URSEL0)|(1<<USBS0)|(3<<UCSZ00);
 1b4:	8e e8       	ldi	r24, 0x8E	; 142
 1b6:	80 bd       	out	0x20, r24	; 32
	fdevopen(USART_Transmit, USART_Receive);
 1b8:	6d ea       	ldi	r22, 0xAD	; 173
 1ba:	70 e0       	ldi	r23, 0x00	; 0
 1bc:	87 ea       	ldi	r24, 0xA7	; 167
 1be:	90 e0       	ldi	r25, 0x00	; 0
 1c0:	0e 94 d3 02 	call	0x5a6	; 0x5a6 <fdevopen>
 1c4:	df 91       	pop	r29
 1c6:	cf 91       	pop	r28
 1c8:	ff 90       	pop	r15
 1ca:	ef 90       	pop	r14
 1cc:	df 90       	pop	r13
 1ce:	cf 90       	pop	r12
 1d0:	08 95       	ret

000001d2 <__subsf3>:
 1d2:	50 58       	subi	r21, 0x80	; 128

000001d4 <__addsf3>:
 1d4:	bb 27       	eor	r27, r27
 1d6:	aa 27       	eor	r26, r26
 1d8:	0e d0       	rcall	.+28     	; 0x1f6 <__addsf3x>
 1da:	48 c1       	rjmp	.+656    	; 0x46c <__fp_round>
 1dc:	39 d1       	rcall	.+626    	; 0x450 <__fp_pscA>
 1de:	30 f0       	brcs	.+12     	; 0x1ec <__addsf3+0x18>
 1e0:	3e d1       	rcall	.+636    	; 0x45e <__fp_pscB>
 1e2:	20 f0       	brcs	.+8      	; 0x1ec <__addsf3+0x18>
 1e4:	31 f4       	brne	.+12     	; 0x1f2 <__addsf3+0x1e>
 1e6:	9f 3f       	cpi	r25, 0xFF	; 255
 1e8:	11 f4       	brne	.+4      	; 0x1ee <__addsf3+0x1a>
 1ea:	1e f4       	brtc	.+6      	; 0x1f2 <__addsf3+0x1e>
 1ec:	2e c1       	rjmp	.+604    	; 0x44a <__fp_nan>
 1ee:	0e f4       	brtc	.+2      	; 0x1f2 <__addsf3+0x1e>
 1f0:	e0 95       	com	r30
 1f2:	e7 fb       	bst	r30, 7
 1f4:	24 c1       	rjmp	.+584    	; 0x43e <__fp_inf>

000001f6 <__addsf3x>:
 1f6:	e9 2f       	mov	r30, r25
 1f8:	4a d1       	rcall	.+660    	; 0x48e <__fp_split3>
 1fa:	80 f3       	brcs	.-32     	; 0x1dc <__addsf3+0x8>
 1fc:	ba 17       	cp	r27, r26
 1fe:	62 07       	cpc	r22, r18
 200:	73 07       	cpc	r23, r19
 202:	84 07       	cpc	r24, r20
 204:	95 07       	cpc	r25, r21
 206:	18 f0       	brcs	.+6      	; 0x20e <__addsf3x+0x18>
 208:	71 f4       	brne	.+28     	; 0x226 <__addsf3x+0x30>
 20a:	9e f5       	brtc	.+102    	; 0x272 <__addsf3x+0x7c>
 20c:	62 c1       	rjmp	.+708    	; 0x4d2 <__fp_zero>
 20e:	0e f4       	brtc	.+2      	; 0x212 <__addsf3x+0x1c>
 210:	e0 95       	com	r30
 212:	0b 2e       	mov	r0, r27
 214:	ba 2f       	mov	r27, r26
 216:	a0 2d       	mov	r26, r0
 218:	0b 01       	movw	r0, r22
 21a:	b9 01       	movw	r22, r18
 21c:	90 01       	movw	r18, r0
 21e:	0c 01       	movw	r0, r24
 220:	ca 01       	movw	r24, r20
 222:	a0 01       	movw	r20, r0
 224:	11 24       	eor	r1, r1
 226:	ff 27       	eor	r31, r31
 228:	59 1b       	sub	r21, r25
 22a:	99 f0       	breq	.+38     	; 0x252 <__addsf3x+0x5c>
 22c:	59 3f       	cpi	r21, 0xF9	; 249
 22e:	50 f4       	brcc	.+20     	; 0x244 <__addsf3x+0x4e>
 230:	50 3e       	cpi	r21, 0xE0	; 224
 232:	68 f1       	brcs	.+90     	; 0x28e <__addsf3x+0x98>
 234:	1a 16       	cp	r1, r26
 236:	f0 40       	sbci	r31, 0x00	; 0
 238:	a2 2f       	mov	r26, r18
 23a:	23 2f       	mov	r18, r19
 23c:	34 2f       	mov	r19, r20
 23e:	44 27       	eor	r20, r20
 240:	58 5f       	subi	r21, 0xF8	; 248
 242:	f3 cf       	rjmp	.-26     	; 0x22a <__addsf3x+0x34>
 244:	46 95       	lsr	r20
 246:	37 95       	ror	r19
 248:	27 95       	ror	r18
 24a:	a7 95       	ror	r26
 24c:	f0 40       	sbci	r31, 0x00	; 0
 24e:	53 95       	inc	r21
 250:	c9 f7       	brne	.-14     	; 0x244 <__addsf3x+0x4e>
 252:	7e f4       	brtc	.+30     	; 0x272 <__addsf3x+0x7c>
 254:	1f 16       	cp	r1, r31
 256:	ba 0b       	sbc	r27, r26
 258:	62 0b       	sbc	r22, r18
 25a:	73 0b       	sbc	r23, r19
 25c:	84 0b       	sbc	r24, r20
 25e:	ba f0       	brmi	.+46     	; 0x28e <__addsf3x+0x98>
 260:	91 50       	subi	r25, 0x01	; 1
 262:	a1 f0       	breq	.+40     	; 0x28c <__addsf3x+0x96>
 264:	ff 0f       	add	r31, r31
 266:	bb 1f       	adc	r27, r27
 268:	66 1f       	adc	r22, r22
 26a:	77 1f       	adc	r23, r23
 26c:	88 1f       	adc	r24, r24
 26e:	c2 f7       	brpl	.-16     	; 0x260 <__addsf3x+0x6a>
 270:	0e c0       	rjmp	.+28     	; 0x28e <__addsf3x+0x98>
 272:	ba 0f       	add	r27, r26
 274:	62 1f       	adc	r22, r18
 276:	73 1f       	adc	r23, r19
 278:	84 1f       	adc	r24, r20
 27a:	48 f4       	brcc	.+18     	; 0x28e <__addsf3x+0x98>
 27c:	87 95       	ror	r24
 27e:	77 95       	ror	r23
 280:	67 95       	ror	r22
 282:	b7 95       	ror	r27
 284:	f7 95       	ror	r31
 286:	9e 3f       	cpi	r25, 0xFE	; 254
 288:	08 f0       	brcs	.+2      	; 0x28c <__addsf3x+0x96>
 28a:	b3 cf       	rjmp	.-154    	; 0x1f2 <__addsf3+0x1e>
 28c:	93 95       	inc	r25
 28e:	88 0f       	add	r24, r24
 290:	08 f0       	brcs	.+2      	; 0x294 <__addsf3x+0x9e>
 292:	99 27       	eor	r25, r25
 294:	ee 0f       	add	r30, r30
 296:	97 95       	ror	r25
 298:	87 95       	ror	r24
 29a:	08 95       	ret

0000029c <__divsf3>:
 29c:	0c d0       	rcall	.+24     	; 0x2b6 <__divsf3x>
 29e:	e6 c0       	rjmp	.+460    	; 0x46c <__fp_round>
 2a0:	de d0       	rcall	.+444    	; 0x45e <__fp_pscB>
 2a2:	40 f0       	brcs	.+16     	; 0x2b4 <__divsf3+0x18>
 2a4:	d5 d0       	rcall	.+426    	; 0x450 <__fp_pscA>
 2a6:	30 f0       	brcs	.+12     	; 0x2b4 <__divsf3+0x18>
 2a8:	21 f4       	brne	.+8      	; 0x2b2 <__divsf3+0x16>
 2aa:	5f 3f       	cpi	r21, 0xFF	; 255
 2ac:	19 f0       	breq	.+6      	; 0x2b4 <__divsf3+0x18>
 2ae:	c7 c0       	rjmp	.+398    	; 0x43e <__fp_inf>
 2b0:	51 11       	cpse	r21, r1
 2b2:	10 c1       	rjmp	.+544    	; 0x4d4 <__fp_szero>
 2b4:	ca c0       	rjmp	.+404    	; 0x44a <__fp_nan>

000002b6 <__divsf3x>:
 2b6:	eb d0       	rcall	.+470    	; 0x48e <__fp_split3>
 2b8:	98 f3       	brcs	.-26     	; 0x2a0 <__divsf3+0x4>

000002ba <__divsf3_pse>:
 2ba:	99 23       	and	r25, r25
 2bc:	c9 f3       	breq	.-14     	; 0x2b0 <__divsf3+0x14>
 2be:	55 23       	and	r21, r21
 2c0:	b1 f3       	breq	.-20     	; 0x2ae <__divsf3+0x12>
 2c2:	95 1b       	sub	r25, r21
 2c4:	55 0b       	sbc	r21, r21
 2c6:	bb 27       	eor	r27, r27
 2c8:	aa 27       	eor	r26, r26
 2ca:	62 17       	cp	r22, r18
 2cc:	73 07       	cpc	r23, r19
 2ce:	84 07       	cpc	r24, r20
 2d0:	38 f0       	brcs	.+14     	; 0x2e0 <__divsf3_pse+0x26>
 2d2:	9f 5f       	subi	r25, 0xFF	; 255
 2d4:	5f 4f       	sbci	r21, 0xFF	; 255
 2d6:	22 0f       	add	r18, r18
 2d8:	33 1f       	adc	r19, r19
 2da:	44 1f       	adc	r20, r20
 2dc:	aa 1f       	adc	r26, r26
 2de:	a9 f3       	breq	.-22     	; 0x2ca <__divsf3_pse+0x10>
 2e0:	33 d0       	rcall	.+102    	; 0x348 <__divsf3_pse+0x8e>
 2e2:	0e 2e       	mov	r0, r30
 2e4:	3a f0       	brmi	.+14     	; 0x2f4 <__divsf3_pse+0x3a>
 2e6:	e0 e8       	ldi	r30, 0x80	; 128
 2e8:	30 d0       	rcall	.+96     	; 0x34a <__divsf3_pse+0x90>
 2ea:	91 50       	subi	r25, 0x01	; 1
 2ec:	50 40       	sbci	r21, 0x00	; 0
 2ee:	e6 95       	lsr	r30
 2f0:	00 1c       	adc	r0, r0
 2f2:	ca f7       	brpl	.-14     	; 0x2e6 <__divsf3_pse+0x2c>
 2f4:	29 d0       	rcall	.+82     	; 0x348 <__divsf3_pse+0x8e>
 2f6:	fe 2f       	mov	r31, r30
 2f8:	27 d0       	rcall	.+78     	; 0x348 <__divsf3_pse+0x8e>
 2fa:	66 0f       	add	r22, r22
 2fc:	77 1f       	adc	r23, r23
 2fe:	88 1f       	adc	r24, r24
 300:	bb 1f       	adc	r27, r27
 302:	26 17       	cp	r18, r22
 304:	37 07       	cpc	r19, r23
 306:	48 07       	cpc	r20, r24
 308:	ab 07       	cpc	r26, r27
 30a:	b0 e8       	ldi	r27, 0x80	; 128
 30c:	09 f0       	breq	.+2      	; 0x310 <__divsf3_pse+0x56>
 30e:	bb 0b       	sbc	r27, r27
 310:	80 2d       	mov	r24, r0
 312:	bf 01       	movw	r22, r30
 314:	ff 27       	eor	r31, r31
 316:	93 58       	subi	r25, 0x83	; 131
 318:	5f 4f       	sbci	r21, 0xFF	; 255
 31a:	2a f0       	brmi	.+10     	; 0x326 <__divsf3_pse+0x6c>
 31c:	9e 3f       	cpi	r25, 0xFE	; 254
 31e:	51 05       	cpc	r21, r1
 320:	68 f0       	brcs	.+26     	; 0x33c <__divsf3_pse+0x82>
 322:	8d c0       	rjmp	.+282    	; 0x43e <__fp_inf>
 324:	d7 c0       	rjmp	.+430    	; 0x4d4 <__fp_szero>
 326:	5f 3f       	cpi	r21, 0xFF	; 255
 328:	ec f3       	brlt	.-6      	; 0x324 <__divsf3_pse+0x6a>
 32a:	98 3e       	cpi	r25, 0xE8	; 232
 32c:	dc f3       	brlt	.-10     	; 0x324 <__divsf3_pse+0x6a>
 32e:	86 95       	lsr	r24
 330:	77 95       	ror	r23
 332:	67 95       	ror	r22
 334:	b7 95       	ror	r27
 336:	f7 95       	ror	r31
 338:	9f 5f       	subi	r25, 0xFF	; 255
 33a:	c9 f7       	brne	.-14     	; 0x32e <__divsf3_pse+0x74>
 33c:	88 0f       	add	r24, r24
 33e:	91 1d       	adc	r25, r1
 340:	96 95       	lsr	r25
 342:	87 95       	ror	r24
 344:	97 f9       	bld	r25, 7
 346:	08 95       	ret
 348:	e1 e0       	ldi	r30, 0x01	; 1
 34a:	66 0f       	add	r22, r22
 34c:	77 1f       	adc	r23, r23
 34e:	88 1f       	adc	r24, r24
 350:	bb 1f       	adc	r27, r27
 352:	62 17       	cp	r22, r18
 354:	73 07       	cpc	r23, r19
 356:	84 07       	cpc	r24, r20
 358:	ba 07       	cpc	r27, r26
 35a:	20 f0       	brcs	.+8      	; 0x364 <__divsf3_pse+0xaa>
 35c:	62 1b       	sub	r22, r18
 35e:	73 0b       	sbc	r23, r19
 360:	84 0b       	sbc	r24, r20
 362:	ba 0b       	sbc	r27, r26
 364:	ee 1f       	adc	r30, r30
 366:	88 f7       	brcc	.-30     	; 0x34a <__divsf3_pse+0x90>
 368:	e0 95       	com	r30
 36a:	08 95       	ret

0000036c <__fixunssfsi>:
 36c:	98 d0       	rcall	.+304    	; 0x49e <__fp_splitA>
 36e:	88 f0       	brcs	.+34     	; 0x392 <__fixunssfsi+0x26>
 370:	9f 57       	subi	r25, 0x7F	; 127
 372:	90 f0       	brcs	.+36     	; 0x398 <__fixunssfsi+0x2c>
 374:	b9 2f       	mov	r27, r25
 376:	99 27       	eor	r25, r25
 378:	b7 51       	subi	r27, 0x17	; 23
 37a:	a0 f0       	brcs	.+40     	; 0x3a4 <__fixunssfsi+0x38>
 37c:	d1 f0       	breq	.+52     	; 0x3b2 <__fixunssfsi+0x46>
 37e:	66 0f       	add	r22, r22
 380:	77 1f       	adc	r23, r23
 382:	88 1f       	adc	r24, r24
 384:	99 1f       	adc	r25, r25
 386:	1a f0       	brmi	.+6      	; 0x38e <__fixunssfsi+0x22>
 388:	ba 95       	dec	r27
 38a:	c9 f7       	brne	.-14     	; 0x37e <__fixunssfsi+0x12>
 38c:	12 c0       	rjmp	.+36     	; 0x3b2 <__fixunssfsi+0x46>
 38e:	b1 30       	cpi	r27, 0x01	; 1
 390:	81 f0       	breq	.+32     	; 0x3b2 <__fixunssfsi+0x46>
 392:	9f d0       	rcall	.+318    	; 0x4d2 <__fp_zero>
 394:	b1 e0       	ldi	r27, 0x01	; 1
 396:	08 95       	ret
 398:	9c c0       	rjmp	.+312    	; 0x4d2 <__fp_zero>
 39a:	67 2f       	mov	r22, r23
 39c:	78 2f       	mov	r23, r24
 39e:	88 27       	eor	r24, r24
 3a0:	b8 5f       	subi	r27, 0xF8	; 248
 3a2:	39 f0       	breq	.+14     	; 0x3b2 <__fixunssfsi+0x46>
 3a4:	b9 3f       	cpi	r27, 0xF9	; 249
 3a6:	cc f3       	brlt	.-14     	; 0x39a <__fixunssfsi+0x2e>
 3a8:	86 95       	lsr	r24
 3aa:	77 95       	ror	r23
 3ac:	67 95       	ror	r22
 3ae:	b3 95       	inc	r27
 3b0:	d9 f7       	brne	.-10     	; 0x3a8 <__fixunssfsi+0x3c>
 3b2:	3e f4       	brtc	.+14     	; 0x3c2 <__fixunssfsi+0x56>
 3b4:	90 95       	com	r25
 3b6:	80 95       	com	r24
 3b8:	70 95       	com	r23
 3ba:	61 95       	neg	r22
 3bc:	7f 4f       	sbci	r23, 0xFF	; 255
 3be:	8f 4f       	sbci	r24, 0xFF	; 255
 3c0:	9f 4f       	sbci	r25, 0xFF	; 255
 3c2:	08 95       	ret

000003c4 <__floatunsisf>:
 3c4:	e8 94       	clt
 3c6:	09 c0       	rjmp	.+18     	; 0x3da <__floatsisf+0x12>

000003c8 <__floatsisf>:
 3c8:	97 fb       	bst	r25, 7
 3ca:	3e f4       	brtc	.+14     	; 0x3da <__floatsisf+0x12>
 3cc:	90 95       	com	r25
 3ce:	80 95       	com	r24
 3d0:	70 95       	com	r23
 3d2:	61 95       	neg	r22
 3d4:	7f 4f       	sbci	r23, 0xFF	; 255
 3d6:	8f 4f       	sbci	r24, 0xFF	; 255
 3d8:	9f 4f       	sbci	r25, 0xFF	; 255
 3da:	99 23       	and	r25, r25
 3dc:	a9 f0       	breq	.+42     	; 0x408 <__floatsisf+0x40>
 3de:	f9 2f       	mov	r31, r25
 3e0:	96 e9       	ldi	r25, 0x96	; 150
 3e2:	bb 27       	eor	r27, r27
 3e4:	93 95       	inc	r25
 3e6:	f6 95       	lsr	r31
 3e8:	87 95       	ror	r24
 3ea:	77 95       	ror	r23
 3ec:	67 95       	ror	r22
 3ee:	b7 95       	ror	r27
 3f0:	f1 11       	cpse	r31, r1
 3f2:	f8 cf       	rjmp	.-16     	; 0x3e4 <__floatsisf+0x1c>
 3f4:	fa f4       	brpl	.+62     	; 0x434 <__floatsisf+0x6c>
 3f6:	bb 0f       	add	r27, r27
 3f8:	11 f4       	brne	.+4      	; 0x3fe <__floatsisf+0x36>
 3fa:	60 ff       	sbrs	r22, 0
 3fc:	1b c0       	rjmp	.+54     	; 0x434 <__floatsisf+0x6c>
 3fe:	6f 5f       	subi	r22, 0xFF	; 255
 400:	7f 4f       	sbci	r23, 0xFF	; 255
 402:	8f 4f       	sbci	r24, 0xFF	; 255
 404:	9f 4f       	sbci	r25, 0xFF	; 255
 406:	16 c0       	rjmp	.+44     	; 0x434 <__floatsisf+0x6c>
 408:	88 23       	and	r24, r24
 40a:	11 f0       	breq	.+4      	; 0x410 <__floatsisf+0x48>
 40c:	96 e9       	ldi	r25, 0x96	; 150
 40e:	11 c0       	rjmp	.+34     	; 0x432 <__floatsisf+0x6a>
 410:	77 23       	and	r23, r23
 412:	21 f0       	breq	.+8      	; 0x41c <__floatsisf+0x54>
 414:	9e e8       	ldi	r25, 0x8E	; 142
 416:	87 2f       	mov	r24, r23
 418:	76 2f       	mov	r23, r22
 41a:	05 c0       	rjmp	.+10     	; 0x426 <__floatsisf+0x5e>
 41c:	66 23       	and	r22, r22
 41e:	71 f0       	breq	.+28     	; 0x43c <__floatsisf+0x74>
 420:	96 e8       	ldi	r25, 0x86	; 134
 422:	86 2f       	mov	r24, r22
 424:	70 e0       	ldi	r23, 0x00	; 0
 426:	60 e0       	ldi	r22, 0x00	; 0
 428:	2a f0       	brmi	.+10     	; 0x434 <__floatsisf+0x6c>
 42a:	9a 95       	dec	r25
 42c:	66 0f       	add	r22, r22
 42e:	77 1f       	adc	r23, r23
 430:	88 1f       	adc	r24, r24
 432:	da f7       	brpl	.-10     	; 0x42a <__floatsisf+0x62>
 434:	88 0f       	add	r24, r24
 436:	96 95       	lsr	r25
 438:	87 95       	ror	r24
 43a:	97 f9       	bld	r25, 7
 43c:	08 95       	ret

0000043e <__fp_inf>:
 43e:	97 f9       	bld	r25, 7
 440:	9f 67       	ori	r25, 0x7F	; 127
 442:	80 e8       	ldi	r24, 0x80	; 128
 444:	70 e0       	ldi	r23, 0x00	; 0
 446:	60 e0       	ldi	r22, 0x00	; 0
 448:	08 95       	ret

0000044a <__fp_nan>:
 44a:	9f ef       	ldi	r25, 0xFF	; 255
 44c:	80 ec       	ldi	r24, 0xC0	; 192
 44e:	08 95       	ret

00000450 <__fp_pscA>:
 450:	00 24       	eor	r0, r0
 452:	0a 94       	dec	r0
 454:	16 16       	cp	r1, r22
 456:	17 06       	cpc	r1, r23
 458:	18 06       	cpc	r1, r24
 45a:	09 06       	cpc	r0, r25
 45c:	08 95       	ret

0000045e <__fp_pscB>:
 45e:	00 24       	eor	r0, r0
 460:	0a 94       	dec	r0
 462:	12 16       	cp	r1, r18
 464:	13 06       	cpc	r1, r19
 466:	14 06       	cpc	r1, r20
 468:	05 06       	cpc	r0, r21
 46a:	08 95       	ret

0000046c <__fp_round>:
 46c:	09 2e       	mov	r0, r25
 46e:	03 94       	inc	r0
 470:	00 0c       	add	r0, r0
 472:	11 f4       	brne	.+4      	; 0x478 <__fp_round+0xc>
 474:	88 23       	and	r24, r24
 476:	52 f0       	brmi	.+20     	; 0x48c <__fp_round+0x20>
 478:	bb 0f       	add	r27, r27
 47a:	40 f4       	brcc	.+16     	; 0x48c <__fp_round+0x20>
 47c:	bf 2b       	or	r27, r31
 47e:	11 f4       	brne	.+4      	; 0x484 <__fp_round+0x18>
 480:	60 ff       	sbrs	r22, 0
 482:	04 c0       	rjmp	.+8      	; 0x48c <__fp_round+0x20>
 484:	6f 5f       	subi	r22, 0xFF	; 255
 486:	7f 4f       	sbci	r23, 0xFF	; 255
 488:	8f 4f       	sbci	r24, 0xFF	; 255
 48a:	9f 4f       	sbci	r25, 0xFF	; 255
 48c:	08 95       	ret

0000048e <__fp_split3>:
 48e:	57 fd       	sbrc	r21, 7
 490:	90 58       	subi	r25, 0x80	; 128
 492:	44 0f       	add	r20, r20
 494:	55 1f       	adc	r21, r21
 496:	59 f0       	breq	.+22     	; 0x4ae <__fp_splitA+0x10>
 498:	5f 3f       	cpi	r21, 0xFF	; 255
 49a:	71 f0       	breq	.+28     	; 0x4b8 <__fp_splitA+0x1a>
 49c:	47 95       	ror	r20

0000049e <__fp_splitA>:
 49e:	88 0f       	add	r24, r24
 4a0:	97 fb       	bst	r25, 7
 4a2:	99 1f       	adc	r25, r25
 4a4:	61 f0       	breq	.+24     	; 0x4be <__fp_splitA+0x20>
 4a6:	9f 3f       	cpi	r25, 0xFF	; 255
 4a8:	79 f0       	breq	.+30     	; 0x4c8 <__fp_splitA+0x2a>
 4aa:	87 95       	ror	r24
 4ac:	08 95       	ret
 4ae:	12 16       	cp	r1, r18
 4b0:	13 06       	cpc	r1, r19
 4b2:	14 06       	cpc	r1, r20
 4b4:	55 1f       	adc	r21, r21
 4b6:	f2 cf       	rjmp	.-28     	; 0x49c <__fp_split3+0xe>
 4b8:	46 95       	lsr	r20
 4ba:	f1 df       	rcall	.-30     	; 0x49e <__fp_splitA>
 4bc:	08 c0       	rjmp	.+16     	; 0x4ce <__fp_splitA+0x30>
 4be:	16 16       	cp	r1, r22
 4c0:	17 06       	cpc	r1, r23
 4c2:	18 06       	cpc	r1, r24
 4c4:	99 1f       	adc	r25, r25
 4c6:	f1 cf       	rjmp	.-30     	; 0x4aa <__fp_splitA+0xc>
 4c8:	86 95       	lsr	r24
 4ca:	71 05       	cpc	r23, r1
 4cc:	61 05       	cpc	r22, r1
 4ce:	08 94       	sec
 4d0:	08 95       	ret

000004d2 <__fp_zero>:
 4d2:	e8 94       	clt

000004d4 <__fp_szero>:
 4d4:	bb 27       	eor	r27, r27
 4d6:	66 27       	eor	r22, r22
 4d8:	77 27       	eor	r23, r23
 4da:	cb 01       	movw	r24, r22
 4dc:	97 f9       	bld	r25, 7
 4de:	08 95       	ret

000004e0 <__mulsf3>:
 4e0:	0b d0       	rcall	.+22     	; 0x4f8 <__mulsf3x>
 4e2:	c4 cf       	rjmp	.-120    	; 0x46c <__fp_round>
 4e4:	b5 df       	rcall	.-150    	; 0x450 <__fp_pscA>
 4e6:	28 f0       	brcs	.+10     	; 0x4f2 <__mulsf3+0x12>
 4e8:	ba df       	rcall	.-140    	; 0x45e <__fp_pscB>
 4ea:	18 f0       	brcs	.+6      	; 0x4f2 <__mulsf3+0x12>
 4ec:	95 23       	and	r25, r21
 4ee:	09 f0       	breq	.+2      	; 0x4f2 <__mulsf3+0x12>
 4f0:	a6 cf       	rjmp	.-180    	; 0x43e <__fp_inf>
 4f2:	ab cf       	rjmp	.-170    	; 0x44a <__fp_nan>
 4f4:	11 24       	eor	r1, r1
 4f6:	ee cf       	rjmp	.-36     	; 0x4d4 <__fp_szero>

000004f8 <__mulsf3x>:
 4f8:	ca df       	rcall	.-108    	; 0x48e <__fp_split3>
 4fa:	a0 f3       	brcs	.-24     	; 0x4e4 <__mulsf3+0x4>

000004fc <__mulsf3_pse>:
 4fc:	95 9f       	mul	r25, r21
 4fe:	d1 f3       	breq	.-12     	; 0x4f4 <__mulsf3+0x14>
 500:	95 0f       	add	r25, r21
 502:	50 e0       	ldi	r21, 0x00	; 0
 504:	55 1f       	adc	r21, r21
 506:	62 9f       	mul	r22, r18
 508:	f0 01       	movw	r30, r0
 50a:	72 9f       	mul	r23, r18
 50c:	bb 27       	eor	r27, r27
 50e:	f0 0d       	add	r31, r0
 510:	b1 1d       	adc	r27, r1
 512:	63 9f       	mul	r22, r19
 514:	aa 27       	eor	r26, r26
 516:	f0 0d       	add	r31, r0
 518:	b1 1d       	adc	r27, r1
 51a:	aa 1f       	adc	r26, r26
 51c:	64 9f       	mul	r22, r20
 51e:	66 27       	eor	r22, r22
 520:	b0 0d       	add	r27, r0
 522:	a1 1d       	adc	r26, r1
 524:	66 1f       	adc	r22, r22
 526:	82 9f       	mul	r24, r18
 528:	22 27       	eor	r18, r18
 52a:	b0 0d       	add	r27, r0
 52c:	a1 1d       	adc	r26, r1
 52e:	62 1f       	adc	r22, r18
 530:	73 9f       	mul	r23, r19
 532:	b0 0d       	add	r27, r0
 534:	a1 1d       	adc	r26, r1
 536:	62 1f       	adc	r22, r18
 538:	83 9f       	mul	r24, r19
 53a:	a0 0d       	add	r26, r0
 53c:	61 1d       	adc	r22, r1
 53e:	22 1f       	adc	r18, r18
 540:	74 9f       	mul	r23, r20
 542:	33 27       	eor	r19, r19
 544:	a0 0d       	add	r26, r0
 546:	61 1d       	adc	r22, r1
 548:	23 1f       	adc	r18, r19
 54a:	84 9f       	mul	r24, r20
 54c:	60 0d       	add	r22, r0
 54e:	21 1d       	adc	r18, r1
 550:	82 2f       	mov	r24, r18
 552:	76 2f       	mov	r23, r22
 554:	6a 2f       	mov	r22, r26
 556:	11 24       	eor	r1, r1
 558:	9f 57       	subi	r25, 0x7F	; 127
 55a:	50 40       	sbci	r21, 0x00	; 0
 55c:	8a f0       	brmi	.+34     	; 0x580 <__stack+0x81>
 55e:	e1 f0       	breq	.+56     	; 0x598 <__stack+0x99>
 560:	88 23       	and	r24, r24
 562:	4a f0       	brmi	.+18     	; 0x576 <__stack+0x77>
 564:	ee 0f       	add	r30, r30
 566:	ff 1f       	adc	r31, r31
 568:	bb 1f       	adc	r27, r27
 56a:	66 1f       	adc	r22, r22
 56c:	77 1f       	adc	r23, r23
 56e:	88 1f       	adc	r24, r24
 570:	91 50       	subi	r25, 0x01	; 1
 572:	50 40       	sbci	r21, 0x00	; 0
 574:	a9 f7       	brne	.-22     	; 0x560 <__stack+0x61>
 576:	9e 3f       	cpi	r25, 0xFE	; 254
 578:	51 05       	cpc	r21, r1
 57a:	70 f0       	brcs	.+28     	; 0x598 <__stack+0x99>
 57c:	60 cf       	rjmp	.-320    	; 0x43e <__fp_inf>
 57e:	aa cf       	rjmp	.-172    	; 0x4d4 <__fp_szero>
 580:	5f 3f       	cpi	r21, 0xFF	; 255
 582:	ec f3       	brlt	.-6      	; 0x57e <__stack+0x7f>
 584:	98 3e       	cpi	r25, 0xE8	; 232
 586:	dc f3       	brlt	.-10     	; 0x57e <__stack+0x7f>
 588:	86 95       	lsr	r24
 58a:	77 95       	ror	r23
 58c:	67 95       	ror	r22
 58e:	b7 95       	ror	r27
 590:	f7 95       	ror	r31
 592:	e7 95       	ror	r30
 594:	9f 5f       	subi	r25, 0xFF	; 255
 596:	c1 f7       	brne	.-16     	; 0x588 <__stack+0x89>
 598:	fe 2b       	or	r31, r30
 59a:	88 0f       	add	r24, r24
 59c:	91 1d       	adc	r25, r1
 59e:	96 95       	lsr	r25
 5a0:	87 95       	ror	r24
 5a2:	97 f9       	bld	r25, 7
 5a4:	08 95       	ret

000005a6 <fdevopen>:
 5a6:	0f 93       	push	r16
 5a8:	1f 93       	push	r17
 5aa:	cf 93       	push	r28
 5ac:	df 93       	push	r29
 5ae:	ec 01       	movw	r28, r24
 5b0:	8b 01       	movw	r16, r22
 5b2:	00 97       	sbiw	r24, 0x00	; 0
 5b4:	31 f4       	brne	.+12     	; 0x5c2 <fdevopen+0x1c>
 5b6:	61 15       	cp	r22, r1
 5b8:	71 05       	cpc	r23, r1
 5ba:	19 f4       	brne	.+6      	; 0x5c2 <fdevopen+0x1c>
 5bc:	80 e0       	ldi	r24, 0x00	; 0
 5be:	90 e0       	ldi	r25, 0x00	; 0
 5c0:	38 c0       	rjmp	.+112    	; 0x632 <fdevopen+0x8c>
 5c2:	6e e0       	ldi	r22, 0x0E	; 14
 5c4:	70 e0       	ldi	r23, 0x00	; 0
 5c6:	81 e0       	ldi	r24, 0x01	; 1
 5c8:	90 e0       	ldi	r25, 0x00	; 0
 5ca:	0e 94 04 05 	call	0xa08	; 0xa08 <calloc>
 5ce:	fc 01       	movw	r30, r24
 5d0:	00 97       	sbiw	r24, 0x00	; 0
 5d2:	a1 f3       	breq	.-24     	; 0x5bc <fdevopen+0x16>
 5d4:	80 e8       	ldi	r24, 0x80	; 128
 5d6:	83 83       	std	Z+3, r24	; 0x03
 5d8:	01 15       	cp	r16, r1
 5da:	11 05       	cpc	r17, r1
 5dc:	71 f0       	breq	.+28     	; 0x5fa <fdevopen+0x54>
 5de:	13 87       	std	Z+11, r17	; 0x0b
 5e0:	02 87       	std	Z+10, r16	; 0x0a
 5e2:	81 e8       	ldi	r24, 0x81	; 129
 5e4:	83 83       	std	Z+3, r24	; 0x03
 5e6:	80 91 18 01 	lds	r24, 0x0118
 5ea:	90 91 19 01 	lds	r25, 0x0119
 5ee:	89 2b       	or	r24, r25
 5f0:	21 f4       	brne	.+8      	; 0x5fa <fdevopen+0x54>
 5f2:	f0 93 19 01 	sts	0x0119, r31
 5f6:	e0 93 18 01 	sts	0x0118, r30
 5fa:	20 97       	sbiw	r28, 0x00	; 0
 5fc:	c9 f0       	breq	.+50     	; 0x630 <fdevopen+0x8a>
 5fe:	d1 87       	std	Z+9, r29	; 0x09
 600:	c0 87       	std	Z+8, r28	; 0x08
 602:	83 81       	ldd	r24, Z+3	; 0x03
 604:	82 60       	ori	r24, 0x02	; 2
 606:	83 83       	std	Z+3, r24	; 0x03
 608:	80 91 1a 01 	lds	r24, 0x011A
 60c:	90 91 1b 01 	lds	r25, 0x011B
 610:	89 2b       	or	r24, r25
 612:	71 f4       	brne	.+28     	; 0x630 <fdevopen+0x8a>
 614:	f0 93 1b 01 	sts	0x011B, r31
 618:	e0 93 1a 01 	sts	0x011A, r30
 61c:	80 91 1c 01 	lds	r24, 0x011C
 620:	90 91 1d 01 	lds	r25, 0x011D
 624:	89 2b       	or	r24, r25
 626:	21 f4       	brne	.+8      	; 0x630 <fdevopen+0x8a>
 628:	f0 93 1d 01 	sts	0x011D, r31
 62c:	e0 93 1c 01 	sts	0x011C, r30
 630:	cf 01       	movw	r24, r30
 632:	df 91       	pop	r29
 634:	cf 91       	pop	r28
 636:	1f 91       	pop	r17
 638:	0f 91       	pop	r16
 63a:	08 95       	ret

0000063c <printf>:
 63c:	a0 e0       	ldi	r26, 0x00	; 0
 63e:	b0 e0       	ldi	r27, 0x00	; 0
 640:	e4 e2       	ldi	r30, 0x24	; 36
 642:	f3 e0       	ldi	r31, 0x03	; 3
 644:	0c 94 04 07 	jmp	0xe08	; 0xe08 <__prologue_saves__+0x20>
 648:	fe 01       	movw	r30, r28
 64a:	35 96       	adiw	r30, 0x05	; 5
 64c:	61 91       	ld	r22, Z+
 64e:	71 91       	ld	r23, Z+
 650:	af 01       	movw	r20, r30
 652:	80 91 1a 01 	lds	r24, 0x011A
 656:	90 91 1b 01 	lds	r25, 0x011B
 65a:	0e 94 32 03 	call	0x664	; 0x664 <vfprintf>
 65e:	e2 e0       	ldi	r30, 0x02	; 2
 660:	0c 94 20 07 	jmp	0xe40	; 0xe40 <__epilogue_restores__+0x20>

00000664 <vfprintf>:
 664:	ac e0       	ldi	r26, 0x0C	; 12
 666:	b0 e0       	ldi	r27, 0x00	; 0
 668:	e8 e3       	ldi	r30, 0x38	; 56
 66a:	f3 e0       	ldi	r31, 0x03	; 3
 66c:	0c 94 f4 06 	jmp	0xde8	; 0xde8 <__prologue_saves__>
 670:	7c 01       	movw	r14, r24
 672:	6b 01       	movw	r12, r22
 674:	8a 01       	movw	r16, r20
 676:	fc 01       	movw	r30, r24
 678:	17 82       	std	Z+7, r1	; 0x07
 67a:	16 82       	std	Z+6, r1	; 0x06
 67c:	83 81       	ldd	r24, Z+3	; 0x03
 67e:	81 ff       	sbrs	r24, 1
 680:	bd c1       	rjmp	.+890    	; 0x9fc <vfprintf+0x398>
 682:	ce 01       	movw	r24, r28
 684:	01 96       	adiw	r24, 0x01	; 1
 686:	4c 01       	movw	r8, r24
 688:	f7 01       	movw	r30, r14
 68a:	93 81       	ldd	r25, Z+3	; 0x03
 68c:	f6 01       	movw	r30, r12
 68e:	93 fd       	sbrc	r25, 3
 690:	85 91       	lpm	r24, Z+
 692:	93 ff       	sbrs	r25, 3
 694:	81 91       	ld	r24, Z+
 696:	6f 01       	movw	r12, r30
 698:	88 23       	and	r24, r24
 69a:	09 f4       	brne	.+2      	; 0x69e <vfprintf+0x3a>
 69c:	ab c1       	rjmp	.+854    	; 0x9f4 <vfprintf+0x390>
 69e:	85 32       	cpi	r24, 0x25	; 37
 6a0:	39 f4       	brne	.+14     	; 0x6b0 <vfprintf+0x4c>
 6a2:	93 fd       	sbrc	r25, 3
 6a4:	85 91       	lpm	r24, Z+
 6a6:	93 ff       	sbrs	r25, 3
 6a8:	81 91       	ld	r24, Z+
 6aa:	6f 01       	movw	r12, r30
 6ac:	85 32       	cpi	r24, 0x25	; 37
 6ae:	29 f4       	brne	.+10     	; 0x6ba <vfprintf+0x56>
 6b0:	b7 01       	movw	r22, r14
 6b2:	90 e0       	ldi	r25, 0x00	; 0
 6b4:	0e 94 64 06 	call	0xcc8	; 0xcc8 <fputc>
 6b8:	e7 cf       	rjmp	.-50     	; 0x688 <vfprintf+0x24>
 6ba:	51 2c       	mov	r5, r1
 6bc:	31 2c       	mov	r3, r1
 6be:	20 e0       	ldi	r18, 0x00	; 0
 6c0:	20 32       	cpi	r18, 0x20	; 32
 6c2:	a0 f4       	brcc	.+40     	; 0x6ec <vfprintf+0x88>
 6c4:	8b 32       	cpi	r24, 0x2B	; 43
 6c6:	69 f0       	breq	.+26     	; 0x6e2 <vfprintf+0x7e>
 6c8:	30 f4       	brcc	.+12     	; 0x6d6 <vfprintf+0x72>
 6ca:	80 32       	cpi	r24, 0x20	; 32
 6cc:	59 f0       	breq	.+22     	; 0x6e4 <vfprintf+0x80>
 6ce:	83 32       	cpi	r24, 0x23	; 35
 6d0:	69 f4       	brne	.+26     	; 0x6ec <vfprintf+0x88>
 6d2:	20 61       	ori	r18, 0x10	; 16
 6d4:	2c c0       	rjmp	.+88     	; 0x72e <vfprintf+0xca>
 6d6:	8d 32       	cpi	r24, 0x2D	; 45
 6d8:	39 f0       	breq	.+14     	; 0x6e8 <vfprintf+0x84>
 6da:	80 33       	cpi	r24, 0x30	; 48
 6dc:	39 f4       	brne	.+14     	; 0x6ec <vfprintf+0x88>
 6de:	21 60       	ori	r18, 0x01	; 1
 6e0:	26 c0       	rjmp	.+76     	; 0x72e <vfprintf+0xca>
 6e2:	22 60       	ori	r18, 0x02	; 2
 6e4:	24 60       	ori	r18, 0x04	; 4
 6e6:	23 c0       	rjmp	.+70     	; 0x72e <vfprintf+0xca>
 6e8:	28 60       	ori	r18, 0x08	; 8
 6ea:	21 c0       	rjmp	.+66     	; 0x72e <vfprintf+0xca>
 6ec:	27 fd       	sbrc	r18, 7
 6ee:	27 c0       	rjmp	.+78     	; 0x73e <vfprintf+0xda>
 6f0:	30 ed       	ldi	r19, 0xD0	; 208
 6f2:	38 0f       	add	r19, r24
 6f4:	3a 30       	cpi	r19, 0x0A	; 10
 6f6:	78 f4       	brcc	.+30     	; 0x716 <vfprintf+0xb2>
 6f8:	26 ff       	sbrs	r18, 6
 6fa:	06 c0       	rjmp	.+12     	; 0x708 <vfprintf+0xa4>
 6fc:	fa e0       	ldi	r31, 0x0A	; 10
 6fe:	5f 9e       	mul	r5, r31
 700:	30 0d       	add	r19, r0
 702:	11 24       	eor	r1, r1
 704:	53 2e       	mov	r5, r19
 706:	13 c0       	rjmp	.+38     	; 0x72e <vfprintf+0xca>
 708:	8a e0       	ldi	r24, 0x0A	; 10
 70a:	38 9e       	mul	r3, r24
 70c:	30 0d       	add	r19, r0
 70e:	11 24       	eor	r1, r1
 710:	33 2e       	mov	r3, r19
 712:	20 62       	ori	r18, 0x20	; 32
 714:	0c c0       	rjmp	.+24     	; 0x72e <vfprintf+0xca>
 716:	8e 32       	cpi	r24, 0x2E	; 46
 718:	21 f4       	brne	.+8      	; 0x722 <vfprintf+0xbe>
 71a:	26 fd       	sbrc	r18, 6
 71c:	6b c1       	rjmp	.+726    	; 0x9f4 <vfprintf+0x390>
 71e:	20 64       	ori	r18, 0x40	; 64
 720:	06 c0       	rjmp	.+12     	; 0x72e <vfprintf+0xca>
 722:	8c 36       	cpi	r24, 0x6C	; 108
 724:	11 f4       	brne	.+4      	; 0x72a <vfprintf+0xc6>
 726:	20 68       	ori	r18, 0x80	; 128
 728:	02 c0       	rjmp	.+4      	; 0x72e <vfprintf+0xca>
 72a:	88 36       	cpi	r24, 0x68	; 104
 72c:	41 f4       	brne	.+16     	; 0x73e <vfprintf+0xda>
 72e:	f6 01       	movw	r30, r12
 730:	93 fd       	sbrc	r25, 3
 732:	85 91       	lpm	r24, Z+
 734:	93 ff       	sbrs	r25, 3
 736:	81 91       	ld	r24, Z+
 738:	6f 01       	movw	r12, r30
 73a:	81 11       	cpse	r24, r1
 73c:	c1 cf       	rjmp	.-126    	; 0x6c0 <vfprintf+0x5c>
 73e:	98 2f       	mov	r25, r24
 740:	9f 7d       	andi	r25, 0xDF	; 223
 742:	95 54       	subi	r25, 0x45	; 69
 744:	93 30       	cpi	r25, 0x03	; 3
 746:	28 f4       	brcc	.+10     	; 0x752 <vfprintf+0xee>
 748:	0c 5f       	subi	r16, 0xFC	; 252
 74a:	1f 4f       	sbci	r17, 0xFF	; 255
 74c:	ff e3       	ldi	r31, 0x3F	; 63
 74e:	f9 83       	std	Y+1, r31	; 0x01
 750:	0d c0       	rjmp	.+26     	; 0x76c <vfprintf+0x108>
 752:	83 36       	cpi	r24, 0x63	; 99
 754:	31 f0       	breq	.+12     	; 0x762 <vfprintf+0xfe>
 756:	83 37       	cpi	r24, 0x73	; 115
 758:	71 f0       	breq	.+28     	; 0x776 <vfprintf+0x112>
 75a:	83 35       	cpi	r24, 0x53	; 83
 75c:	09 f0       	breq	.+2      	; 0x760 <vfprintf+0xfc>
 75e:	5b c0       	rjmp	.+182    	; 0x816 <vfprintf+0x1b2>
 760:	22 c0       	rjmp	.+68     	; 0x7a6 <vfprintf+0x142>
 762:	f8 01       	movw	r30, r16
 764:	80 81       	ld	r24, Z
 766:	89 83       	std	Y+1, r24	; 0x01
 768:	0e 5f       	subi	r16, 0xFE	; 254
 76a:	1f 4f       	sbci	r17, 0xFF	; 255
 76c:	44 24       	eor	r4, r4
 76e:	43 94       	inc	r4
 770:	51 2c       	mov	r5, r1
 772:	54 01       	movw	r10, r8
 774:	15 c0       	rjmp	.+42     	; 0x7a0 <vfprintf+0x13c>
 776:	38 01       	movw	r6, r16
 778:	f2 e0       	ldi	r31, 0x02	; 2
 77a:	6f 0e       	add	r6, r31
 77c:	71 1c       	adc	r7, r1
 77e:	f8 01       	movw	r30, r16
 780:	a0 80       	ld	r10, Z
 782:	b1 80       	ldd	r11, Z+1	; 0x01
 784:	26 ff       	sbrs	r18, 6
 786:	03 c0       	rjmp	.+6      	; 0x78e <vfprintf+0x12a>
 788:	65 2d       	mov	r22, r5
 78a:	70 e0       	ldi	r23, 0x00	; 0
 78c:	02 c0       	rjmp	.+4      	; 0x792 <vfprintf+0x12e>
 78e:	6f ef       	ldi	r22, 0xFF	; 255
 790:	7f ef       	ldi	r23, 0xFF	; 255
 792:	c5 01       	movw	r24, r10
 794:	2c 87       	std	Y+12, r18	; 0x0c
 796:	0e 94 59 06 	call	0xcb2	; 0xcb2 <strnlen>
 79a:	2c 01       	movw	r4, r24
 79c:	83 01       	movw	r16, r6
 79e:	2c 85       	ldd	r18, Y+12	; 0x0c
 7a0:	2f 77       	andi	r18, 0x7F	; 127
 7a2:	22 2e       	mov	r2, r18
 7a4:	17 c0       	rjmp	.+46     	; 0x7d4 <vfprintf+0x170>
 7a6:	38 01       	movw	r6, r16
 7a8:	f2 e0       	ldi	r31, 0x02	; 2
 7aa:	6f 0e       	add	r6, r31
 7ac:	71 1c       	adc	r7, r1
 7ae:	f8 01       	movw	r30, r16
 7b0:	a0 80       	ld	r10, Z
 7b2:	b1 80       	ldd	r11, Z+1	; 0x01
 7b4:	26 ff       	sbrs	r18, 6
 7b6:	03 c0       	rjmp	.+6      	; 0x7be <vfprintf+0x15a>
 7b8:	65 2d       	mov	r22, r5
 7ba:	70 e0       	ldi	r23, 0x00	; 0
 7bc:	02 c0       	rjmp	.+4      	; 0x7c2 <vfprintf+0x15e>
 7be:	6f ef       	ldi	r22, 0xFF	; 255
 7c0:	7f ef       	ldi	r23, 0xFF	; 255
 7c2:	c5 01       	movw	r24, r10
 7c4:	2c 87       	std	Y+12, r18	; 0x0c
 7c6:	0e 94 47 06 	call	0xc8e	; 0xc8e <strnlen_P>
 7ca:	2c 01       	movw	r4, r24
 7cc:	2c 85       	ldd	r18, Y+12	; 0x0c
 7ce:	20 68       	ori	r18, 0x80	; 128
 7d0:	22 2e       	mov	r2, r18
 7d2:	83 01       	movw	r16, r6
 7d4:	23 fc       	sbrc	r2, 3
 7d6:	1b c0       	rjmp	.+54     	; 0x80e <vfprintf+0x1aa>
 7d8:	83 2d       	mov	r24, r3
 7da:	90 e0       	ldi	r25, 0x00	; 0
 7dc:	48 16       	cp	r4, r24
 7de:	59 06       	cpc	r5, r25
 7e0:	b0 f4       	brcc	.+44     	; 0x80e <vfprintf+0x1aa>
 7e2:	b7 01       	movw	r22, r14
 7e4:	80 e2       	ldi	r24, 0x20	; 32
 7e6:	90 e0       	ldi	r25, 0x00	; 0
 7e8:	0e 94 64 06 	call	0xcc8	; 0xcc8 <fputc>
 7ec:	3a 94       	dec	r3
 7ee:	f4 cf       	rjmp	.-24     	; 0x7d8 <vfprintf+0x174>
 7f0:	f5 01       	movw	r30, r10
 7f2:	27 fc       	sbrc	r2, 7
 7f4:	85 91       	lpm	r24, Z+
 7f6:	27 fe       	sbrs	r2, 7
 7f8:	81 91       	ld	r24, Z+
 7fa:	5f 01       	movw	r10, r30
 7fc:	b7 01       	movw	r22, r14
 7fe:	90 e0       	ldi	r25, 0x00	; 0
 800:	0e 94 64 06 	call	0xcc8	; 0xcc8 <fputc>
 804:	31 10       	cpse	r3, r1
 806:	3a 94       	dec	r3
 808:	f1 e0       	ldi	r31, 0x01	; 1
 80a:	4f 1a       	sub	r4, r31
 80c:	51 08       	sbc	r5, r1
 80e:	41 14       	cp	r4, r1
 810:	51 04       	cpc	r5, r1
 812:	71 f7       	brne	.-36     	; 0x7f0 <vfprintf+0x18c>
 814:	e5 c0       	rjmp	.+458    	; 0x9e0 <vfprintf+0x37c>
 816:	84 36       	cpi	r24, 0x64	; 100
 818:	11 f0       	breq	.+4      	; 0x81e <vfprintf+0x1ba>
 81a:	89 36       	cpi	r24, 0x69	; 105
 81c:	39 f5       	brne	.+78     	; 0x86c <vfprintf+0x208>
 81e:	f8 01       	movw	r30, r16
 820:	27 ff       	sbrs	r18, 7
 822:	07 c0       	rjmp	.+14     	; 0x832 <vfprintf+0x1ce>
 824:	60 81       	ld	r22, Z
 826:	71 81       	ldd	r23, Z+1	; 0x01
 828:	82 81       	ldd	r24, Z+2	; 0x02
 82a:	93 81       	ldd	r25, Z+3	; 0x03
 82c:	0c 5f       	subi	r16, 0xFC	; 252
 82e:	1f 4f       	sbci	r17, 0xFF	; 255
 830:	08 c0       	rjmp	.+16     	; 0x842 <vfprintf+0x1de>
 832:	60 81       	ld	r22, Z
 834:	71 81       	ldd	r23, Z+1	; 0x01
 836:	88 27       	eor	r24, r24
 838:	77 fd       	sbrc	r23, 7
 83a:	80 95       	com	r24
 83c:	98 2f       	mov	r25, r24
 83e:	0e 5f       	subi	r16, 0xFE	; 254
 840:	1f 4f       	sbci	r17, 0xFF	; 255
 842:	2f 76       	andi	r18, 0x6F	; 111
 844:	b2 2e       	mov	r11, r18
 846:	97 ff       	sbrs	r25, 7
 848:	09 c0       	rjmp	.+18     	; 0x85c <vfprintf+0x1f8>
 84a:	90 95       	com	r25
 84c:	80 95       	com	r24
 84e:	70 95       	com	r23
 850:	61 95       	neg	r22
 852:	7f 4f       	sbci	r23, 0xFF	; 255
 854:	8f 4f       	sbci	r24, 0xFF	; 255
 856:	9f 4f       	sbci	r25, 0xFF	; 255
 858:	20 68       	ori	r18, 0x80	; 128
 85a:	b2 2e       	mov	r11, r18
 85c:	2a e0       	ldi	r18, 0x0A	; 10
 85e:	30 e0       	ldi	r19, 0x00	; 0
 860:	a4 01       	movw	r20, r8
 862:	0e 94 96 06 	call	0xd2c	; 0xd2c <__ultoa_invert>
 866:	a8 2e       	mov	r10, r24
 868:	a8 18       	sub	r10, r8
 86a:	44 c0       	rjmp	.+136    	; 0x8f4 <vfprintf+0x290>
 86c:	85 37       	cpi	r24, 0x75	; 117
 86e:	29 f4       	brne	.+10     	; 0x87a <vfprintf+0x216>
 870:	2f 7e       	andi	r18, 0xEF	; 239
 872:	b2 2e       	mov	r11, r18
 874:	2a e0       	ldi	r18, 0x0A	; 10
 876:	30 e0       	ldi	r19, 0x00	; 0
 878:	25 c0       	rjmp	.+74     	; 0x8c4 <vfprintf+0x260>
 87a:	f2 2f       	mov	r31, r18
 87c:	f9 7f       	andi	r31, 0xF9	; 249
 87e:	bf 2e       	mov	r11, r31
 880:	8f 36       	cpi	r24, 0x6F	; 111
 882:	c1 f0       	breq	.+48     	; 0x8b4 <vfprintf+0x250>
 884:	18 f4       	brcc	.+6      	; 0x88c <vfprintf+0x228>
 886:	88 35       	cpi	r24, 0x58	; 88
 888:	79 f0       	breq	.+30     	; 0x8a8 <vfprintf+0x244>
 88a:	b4 c0       	rjmp	.+360    	; 0x9f4 <vfprintf+0x390>
 88c:	80 37       	cpi	r24, 0x70	; 112
 88e:	19 f0       	breq	.+6      	; 0x896 <vfprintf+0x232>
 890:	88 37       	cpi	r24, 0x78	; 120
 892:	21 f0       	breq	.+8      	; 0x89c <vfprintf+0x238>
 894:	af c0       	rjmp	.+350    	; 0x9f4 <vfprintf+0x390>
 896:	2f 2f       	mov	r18, r31
 898:	20 61       	ori	r18, 0x10	; 16
 89a:	b2 2e       	mov	r11, r18
 89c:	b4 fe       	sbrs	r11, 4
 89e:	0d c0       	rjmp	.+26     	; 0x8ba <vfprintf+0x256>
 8a0:	8b 2d       	mov	r24, r11
 8a2:	84 60       	ori	r24, 0x04	; 4
 8a4:	b8 2e       	mov	r11, r24
 8a6:	09 c0       	rjmp	.+18     	; 0x8ba <vfprintf+0x256>
 8a8:	24 ff       	sbrs	r18, 4
 8aa:	0a c0       	rjmp	.+20     	; 0x8c0 <vfprintf+0x25c>
 8ac:	9f 2f       	mov	r25, r31
 8ae:	96 60       	ori	r25, 0x06	; 6
 8b0:	b9 2e       	mov	r11, r25
 8b2:	06 c0       	rjmp	.+12     	; 0x8c0 <vfprintf+0x25c>
 8b4:	28 e0       	ldi	r18, 0x08	; 8
 8b6:	30 e0       	ldi	r19, 0x00	; 0
 8b8:	05 c0       	rjmp	.+10     	; 0x8c4 <vfprintf+0x260>
 8ba:	20 e1       	ldi	r18, 0x10	; 16
 8bc:	30 e0       	ldi	r19, 0x00	; 0
 8be:	02 c0       	rjmp	.+4      	; 0x8c4 <vfprintf+0x260>
 8c0:	20 e1       	ldi	r18, 0x10	; 16
 8c2:	32 e0       	ldi	r19, 0x02	; 2
 8c4:	f8 01       	movw	r30, r16
 8c6:	b7 fe       	sbrs	r11, 7
 8c8:	07 c0       	rjmp	.+14     	; 0x8d8 <vfprintf+0x274>
 8ca:	60 81       	ld	r22, Z
 8cc:	71 81       	ldd	r23, Z+1	; 0x01
 8ce:	82 81       	ldd	r24, Z+2	; 0x02
 8d0:	93 81       	ldd	r25, Z+3	; 0x03
 8d2:	0c 5f       	subi	r16, 0xFC	; 252
 8d4:	1f 4f       	sbci	r17, 0xFF	; 255
 8d6:	06 c0       	rjmp	.+12     	; 0x8e4 <vfprintf+0x280>
 8d8:	60 81       	ld	r22, Z
 8da:	71 81       	ldd	r23, Z+1	; 0x01
 8dc:	80 e0       	ldi	r24, 0x00	; 0
 8de:	90 e0       	ldi	r25, 0x00	; 0
 8e0:	0e 5f       	subi	r16, 0xFE	; 254
 8e2:	1f 4f       	sbci	r17, 0xFF	; 255
 8e4:	a4 01       	movw	r20, r8
 8e6:	0e 94 96 06 	call	0xd2c	; 0xd2c <__ultoa_invert>
 8ea:	a8 2e       	mov	r10, r24
 8ec:	a8 18       	sub	r10, r8
 8ee:	fb 2d       	mov	r31, r11
 8f0:	ff 77       	andi	r31, 0x7F	; 127
 8f2:	bf 2e       	mov	r11, r31
 8f4:	b6 fe       	sbrs	r11, 6
 8f6:	0b c0       	rjmp	.+22     	; 0x90e <vfprintf+0x2aa>
 8f8:	2b 2d       	mov	r18, r11
 8fa:	2e 7f       	andi	r18, 0xFE	; 254
 8fc:	a5 14       	cp	r10, r5
 8fe:	50 f4       	brcc	.+20     	; 0x914 <vfprintf+0x2b0>
 900:	b4 fe       	sbrs	r11, 4
 902:	0a c0       	rjmp	.+20     	; 0x918 <vfprintf+0x2b4>
 904:	b2 fc       	sbrc	r11, 2
 906:	08 c0       	rjmp	.+16     	; 0x918 <vfprintf+0x2b4>
 908:	2b 2d       	mov	r18, r11
 90a:	2e 7e       	andi	r18, 0xEE	; 238
 90c:	05 c0       	rjmp	.+10     	; 0x918 <vfprintf+0x2b4>
 90e:	7a 2c       	mov	r7, r10
 910:	2b 2d       	mov	r18, r11
 912:	03 c0       	rjmp	.+6      	; 0x91a <vfprintf+0x2b6>
 914:	7a 2c       	mov	r7, r10
 916:	01 c0       	rjmp	.+2      	; 0x91a <vfprintf+0x2b6>
 918:	75 2c       	mov	r7, r5
 91a:	24 ff       	sbrs	r18, 4
 91c:	0d c0       	rjmp	.+26     	; 0x938 <vfprintf+0x2d4>
 91e:	fe 01       	movw	r30, r28
 920:	ea 0d       	add	r30, r10
 922:	f1 1d       	adc	r31, r1
 924:	80 81       	ld	r24, Z
 926:	80 33       	cpi	r24, 0x30	; 48
 928:	11 f4       	brne	.+4      	; 0x92e <vfprintf+0x2ca>
 92a:	29 7e       	andi	r18, 0xE9	; 233
 92c:	09 c0       	rjmp	.+18     	; 0x940 <vfprintf+0x2dc>
 92e:	22 ff       	sbrs	r18, 2
 930:	06 c0       	rjmp	.+12     	; 0x93e <vfprintf+0x2da>
 932:	73 94       	inc	r7
 934:	73 94       	inc	r7
 936:	04 c0       	rjmp	.+8      	; 0x940 <vfprintf+0x2dc>
 938:	82 2f       	mov	r24, r18
 93a:	86 78       	andi	r24, 0x86	; 134
 93c:	09 f0       	breq	.+2      	; 0x940 <vfprintf+0x2dc>
 93e:	73 94       	inc	r7
 940:	23 fd       	sbrc	r18, 3
 942:	13 c0       	rjmp	.+38     	; 0x96a <vfprintf+0x306>
 944:	20 ff       	sbrs	r18, 0
 946:	06 c0       	rjmp	.+12     	; 0x954 <vfprintf+0x2f0>
 948:	5a 2c       	mov	r5, r10
 94a:	73 14       	cp	r7, r3
 94c:	18 f4       	brcc	.+6      	; 0x954 <vfprintf+0x2f0>
 94e:	53 0c       	add	r5, r3
 950:	57 18       	sub	r5, r7
 952:	73 2c       	mov	r7, r3
 954:	73 14       	cp	r7, r3
 956:	68 f4       	brcc	.+26     	; 0x972 <vfprintf+0x30e>
 958:	b7 01       	movw	r22, r14
 95a:	80 e2       	ldi	r24, 0x20	; 32
 95c:	90 e0       	ldi	r25, 0x00	; 0
 95e:	2c 87       	std	Y+12, r18	; 0x0c
 960:	0e 94 64 06 	call	0xcc8	; 0xcc8 <fputc>
 964:	73 94       	inc	r7
 966:	2c 85       	ldd	r18, Y+12	; 0x0c
 968:	f5 cf       	rjmp	.-22     	; 0x954 <vfprintf+0x2f0>
 96a:	73 14       	cp	r7, r3
 96c:	10 f4       	brcc	.+4      	; 0x972 <vfprintf+0x30e>
 96e:	37 18       	sub	r3, r7
 970:	01 c0       	rjmp	.+2      	; 0x974 <vfprintf+0x310>
 972:	31 2c       	mov	r3, r1
 974:	24 ff       	sbrs	r18, 4
 976:	12 c0       	rjmp	.+36     	; 0x99c <vfprintf+0x338>
 978:	b7 01       	movw	r22, r14
 97a:	80 e3       	ldi	r24, 0x30	; 48
 97c:	90 e0       	ldi	r25, 0x00	; 0
 97e:	2c 87       	std	Y+12, r18	; 0x0c
 980:	0e 94 64 06 	call	0xcc8	; 0xcc8 <fputc>
 984:	2c 85       	ldd	r18, Y+12	; 0x0c
 986:	22 ff       	sbrs	r18, 2
 988:	17 c0       	rjmp	.+46     	; 0x9b8 <vfprintf+0x354>
 98a:	21 ff       	sbrs	r18, 1
 98c:	03 c0       	rjmp	.+6      	; 0x994 <vfprintf+0x330>
 98e:	88 e5       	ldi	r24, 0x58	; 88
 990:	90 e0       	ldi	r25, 0x00	; 0
 992:	02 c0       	rjmp	.+4      	; 0x998 <vfprintf+0x334>
 994:	88 e7       	ldi	r24, 0x78	; 120
 996:	90 e0       	ldi	r25, 0x00	; 0
 998:	b7 01       	movw	r22, r14
 99a:	0c c0       	rjmp	.+24     	; 0x9b4 <vfprintf+0x350>
 99c:	82 2f       	mov	r24, r18
 99e:	86 78       	andi	r24, 0x86	; 134
 9a0:	59 f0       	breq	.+22     	; 0x9b8 <vfprintf+0x354>
 9a2:	21 fd       	sbrc	r18, 1
 9a4:	02 c0       	rjmp	.+4      	; 0x9aa <vfprintf+0x346>
 9a6:	80 e2       	ldi	r24, 0x20	; 32
 9a8:	01 c0       	rjmp	.+2      	; 0x9ac <vfprintf+0x348>
 9aa:	8b e2       	ldi	r24, 0x2B	; 43
 9ac:	27 fd       	sbrc	r18, 7
 9ae:	8d e2       	ldi	r24, 0x2D	; 45
 9b0:	b7 01       	movw	r22, r14
 9b2:	90 e0       	ldi	r25, 0x00	; 0
 9b4:	0e 94 64 06 	call	0xcc8	; 0xcc8 <fputc>
 9b8:	a5 14       	cp	r10, r5
 9ba:	38 f4       	brcc	.+14     	; 0x9ca <vfprintf+0x366>
 9bc:	b7 01       	movw	r22, r14
 9be:	80 e3       	ldi	r24, 0x30	; 48
 9c0:	90 e0       	ldi	r25, 0x00	; 0
 9c2:	0e 94 64 06 	call	0xcc8	; 0xcc8 <fputc>
 9c6:	5a 94       	dec	r5
 9c8:	f7 cf       	rjmp	.-18     	; 0x9b8 <vfprintf+0x354>
 9ca:	aa 94       	dec	r10
 9cc:	f4 01       	movw	r30, r8
 9ce:	ea 0d       	add	r30, r10
 9d0:	f1 1d       	adc	r31, r1
 9d2:	80 81       	ld	r24, Z
 9d4:	b7 01       	movw	r22, r14
 9d6:	90 e0       	ldi	r25, 0x00	; 0
 9d8:	0e 94 64 06 	call	0xcc8	; 0xcc8 <fputc>
 9dc:	a1 10       	cpse	r10, r1
 9de:	f5 cf       	rjmp	.-22     	; 0x9ca <vfprintf+0x366>
 9e0:	33 20       	and	r3, r3
 9e2:	09 f4       	brne	.+2      	; 0x9e6 <vfprintf+0x382>
 9e4:	51 ce       	rjmp	.-862    	; 0x688 <vfprintf+0x24>
 9e6:	b7 01       	movw	r22, r14
 9e8:	80 e2       	ldi	r24, 0x20	; 32
 9ea:	90 e0       	ldi	r25, 0x00	; 0
 9ec:	0e 94 64 06 	call	0xcc8	; 0xcc8 <fputc>
 9f0:	3a 94       	dec	r3
 9f2:	f6 cf       	rjmp	.-20     	; 0x9e0 <vfprintf+0x37c>
 9f4:	f7 01       	movw	r30, r14
 9f6:	86 81       	ldd	r24, Z+6	; 0x06
 9f8:	97 81       	ldd	r25, Z+7	; 0x07
 9fa:	02 c0       	rjmp	.+4      	; 0xa00 <vfprintf+0x39c>
 9fc:	8f ef       	ldi	r24, 0xFF	; 255
 9fe:	9f ef       	ldi	r25, 0xFF	; 255
 a00:	2c 96       	adiw	r28, 0x0c	; 12
 a02:	e2 e1       	ldi	r30, 0x12	; 18
 a04:	0c 94 10 07 	jmp	0xe20	; 0xe20 <__epilogue_restores__>

00000a08 <calloc>:
 a08:	0f 93       	push	r16
 a0a:	1f 93       	push	r17
 a0c:	cf 93       	push	r28
 a0e:	df 93       	push	r29
 a10:	86 9f       	mul	r24, r22
 a12:	80 01       	movw	r16, r0
 a14:	87 9f       	mul	r24, r23
 a16:	10 0d       	add	r17, r0
 a18:	96 9f       	mul	r25, r22
 a1a:	10 0d       	add	r17, r0
 a1c:	11 24       	eor	r1, r1
 a1e:	c8 01       	movw	r24, r16
 a20:	0e 94 20 05 	call	0xa40	; 0xa40 <malloc>
 a24:	ec 01       	movw	r28, r24
 a26:	00 97       	sbiw	r24, 0x00	; 0
 a28:	29 f0       	breq	.+10     	; 0xa34 <calloc+0x2c>
 a2a:	a8 01       	movw	r20, r16
 a2c:	60 e0       	ldi	r22, 0x00	; 0
 a2e:	70 e0       	ldi	r23, 0x00	; 0
 a30:	0e 94 52 06 	call	0xca4	; 0xca4 <memset>
 a34:	ce 01       	movw	r24, r28
 a36:	df 91       	pop	r29
 a38:	cf 91       	pop	r28
 a3a:	1f 91       	pop	r17
 a3c:	0f 91       	pop	r16
 a3e:	08 95       	ret

00000a40 <malloc>:
 a40:	cf 93       	push	r28
 a42:	df 93       	push	r29
 a44:	82 30       	cpi	r24, 0x02	; 2
 a46:	91 05       	cpc	r25, r1
 a48:	10 f4       	brcc	.+4      	; 0xa4e <malloc+0xe>
 a4a:	82 e0       	ldi	r24, 0x02	; 2
 a4c:	90 e0       	ldi	r25, 0x00	; 0
 a4e:	e0 91 20 01 	lds	r30, 0x0120
 a52:	f0 91 21 01 	lds	r31, 0x0121
 a56:	20 e0       	ldi	r18, 0x00	; 0
 a58:	30 e0       	ldi	r19, 0x00	; 0
 a5a:	a0 e0       	ldi	r26, 0x00	; 0
 a5c:	b0 e0       	ldi	r27, 0x00	; 0
 a5e:	30 97       	sbiw	r30, 0x00	; 0
 a60:	39 f1       	breq	.+78     	; 0xab0 <malloc+0x70>
 a62:	40 81       	ld	r20, Z
 a64:	51 81       	ldd	r21, Z+1	; 0x01
 a66:	48 17       	cp	r20, r24
 a68:	59 07       	cpc	r21, r25
 a6a:	b8 f0       	brcs	.+46     	; 0xa9a <malloc+0x5a>
 a6c:	48 17       	cp	r20, r24
 a6e:	59 07       	cpc	r21, r25
 a70:	71 f4       	brne	.+28     	; 0xa8e <malloc+0x4e>
 a72:	82 81       	ldd	r24, Z+2	; 0x02
 a74:	93 81       	ldd	r25, Z+3	; 0x03
 a76:	10 97       	sbiw	r26, 0x00	; 0
 a78:	29 f0       	breq	.+10     	; 0xa84 <malloc+0x44>
 a7a:	13 96       	adiw	r26, 0x03	; 3
 a7c:	9c 93       	st	X, r25
 a7e:	8e 93       	st	-X, r24
 a80:	12 97       	sbiw	r26, 0x02	; 2
 a82:	2c c0       	rjmp	.+88     	; 0xadc <malloc+0x9c>
 a84:	90 93 21 01 	sts	0x0121, r25
 a88:	80 93 20 01 	sts	0x0120, r24
 a8c:	27 c0       	rjmp	.+78     	; 0xadc <malloc+0x9c>
 a8e:	21 15       	cp	r18, r1
 a90:	31 05       	cpc	r19, r1
 a92:	31 f0       	breq	.+12     	; 0xaa0 <malloc+0x60>
 a94:	42 17       	cp	r20, r18
 a96:	53 07       	cpc	r21, r19
 a98:	18 f0       	brcs	.+6      	; 0xaa0 <malloc+0x60>
 a9a:	a9 01       	movw	r20, r18
 a9c:	db 01       	movw	r26, r22
 a9e:	01 c0       	rjmp	.+2      	; 0xaa2 <malloc+0x62>
 aa0:	ef 01       	movw	r28, r30
 aa2:	9a 01       	movw	r18, r20
 aa4:	bd 01       	movw	r22, r26
 aa6:	df 01       	movw	r26, r30
 aa8:	02 80       	ldd	r0, Z+2	; 0x02
 aaa:	f3 81       	ldd	r31, Z+3	; 0x03
 aac:	e0 2d       	mov	r30, r0
 aae:	d7 cf       	rjmp	.-82     	; 0xa5e <malloc+0x1e>
 ab0:	21 15       	cp	r18, r1
 ab2:	31 05       	cpc	r19, r1
 ab4:	f9 f0       	breq	.+62     	; 0xaf4 <malloc+0xb4>
 ab6:	28 1b       	sub	r18, r24
 ab8:	39 0b       	sbc	r19, r25
 aba:	24 30       	cpi	r18, 0x04	; 4
 abc:	31 05       	cpc	r19, r1
 abe:	80 f4       	brcc	.+32     	; 0xae0 <malloc+0xa0>
 ac0:	8a 81       	ldd	r24, Y+2	; 0x02
 ac2:	9b 81       	ldd	r25, Y+3	; 0x03
 ac4:	61 15       	cp	r22, r1
 ac6:	71 05       	cpc	r23, r1
 ac8:	21 f0       	breq	.+8      	; 0xad2 <malloc+0x92>
 aca:	fb 01       	movw	r30, r22
 acc:	93 83       	std	Z+3, r25	; 0x03
 ace:	82 83       	std	Z+2, r24	; 0x02
 ad0:	04 c0       	rjmp	.+8      	; 0xada <malloc+0x9a>
 ad2:	90 93 21 01 	sts	0x0121, r25
 ad6:	80 93 20 01 	sts	0x0120, r24
 ada:	fe 01       	movw	r30, r28
 adc:	32 96       	adiw	r30, 0x02	; 2
 ade:	44 c0       	rjmp	.+136    	; 0xb68 <malloc+0x128>
 ae0:	fe 01       	movw	r30, r28
 ae2:	e2 0f       	add	r30, r18
 ae4:	f3 1f       	adc	r31, r19
 ae6:	81 93       	st	Z+, r24
 ae8:	91 93       	st	Z+, r25
 aea:	22 50       	subi	r18, 0x02	; 2
 aec:	31 09       	sbc	r19, r1
 aee:	39 83       	std	Y+1, r19	; 0x01
 af0:	28 83       	st	Y, r18
 af2:	3a c0       	rjmp	.+116    	; 0xb68 <malloc+0x128>
 af4:	20 91 1e 01 	lds	r18, 0x011E
 af8:	30 91 1f 01 	lds	r19, 0x011F
 afc:	23 2b       	or	r18, r19
 afe:	41 f4       	brne	.+16     	; 0xb10 <malloc+0xd0>
 b00:	20 91 02 01 	lds	r18, 0x0102
 b04:	30 91 03 01 	lds	r19, 0x0103
 b08:	30 93 1f 01 	sts	0x011F, r19
 b0c:	20 93 1e 01 	sts	0x011E, r18
 b10:	20 91 00 01 	lds	r18, 0x0100
 b14:	30 91 01 01 	lds	r19, 0x0101
 b18:	21 15       	cp	r18, r1
 b1a:	31 05       	cpc	r19, r1
 b1c:	41 f4       	brne	.+16     	; 0xb2e <malloc+0xee>
 b1e:	2d b7       	in	r18, 0x3d	; 61
 b20:	3e b7       	in	r19, 0x3e	; 62
 b22:	40 91 04 01 	lds	r20, 0x0104
 b26:	50 91 05 01 	lds	r21, 0x0105
 b2a:	24 1b       	sub	r18, r20
 b2c:	35 0b       	sbc	r19, r21
 b2e:	e0 91 1e 01 	lds	r30, 0x011E
 b32:	f0 91 1f 01 	lds	r31, 0x011F
 b36:	e2 17       	cp	r30, r18
 b38:	f3 07       	cpc	r31, r19
 b3a:	a0 f4       	brcc	.+40     	; 0xb64 <malloc+0x124>
 b3c:	2e 1b       	sub	r18, r30
 b3e:	3f 0b       	sbc	r19, r31
 b40:	28 17       	cp	r18, r24
 b42:	39 07       	cpc	r19, r25
 b44:	78 f0       	brcs	.+30     	; 0xb64 <malloc+0x124>
 b46:	ac 01       	movw	r20, r24
 b48:	4e 5f       	subi	r20, 0xFE	; 254
 b4a:	5f 4f       	sbci	r21, 0xFF	; 255
 b4c:	24 17       	cp	r18, r20
 b4e:	35 07       	cpc	r19, r21
 b50:	48 f0       	brcs	.+18     	; 0xb64 <malloc+0x124>
 b52:	4e 0f       	add	r20, r30
 b54:	5f 1f       	adc	r21, r31
 b56:	50 93 1f 01 	sts	0x011F, r21
 b5a:	40 93 1e 01 	sts	0x011E, r20
 b5e:	81 93       	st	Z+, r24
 b60:	91 93       	st	Z+, r25
 b62:	02 c0       	rjmp	.+4      	; 0xb68 <malloc+0x128>
 b64:	e0 e0       	ldi	r30, 0x00	; 0
 b66:	f0 e0       	ldi	r31, 0x00	; 0
 b68:	cf 01       	movw	r24, r30
 b6a:	df 91       	pop	r29
 b6c:	cf 91       	pop	r28
 b6e:	08 95       	ret

00000b70 <free>:
 b70:	cf 93       	push	r28
 b72:	df 93       	push	r29
 b74:	00 97       	sbiw	r24, 0x00	; 0
 b76:	09 f4       	brne	.+2      	; 0xb7a <free+0xa>
 b78:	87 c0       	rjmp	.+270    	; 0xc88 <free+0x118>
 b7a:	fc 01       	movw	r30, r24
 b7c:	32 97       	sbiw	r30, 0x02	; 2
 b7e:	13 82       	std	Z+3, r1	; 0x03
 b80:	12 82       	std	Z+2, r1	; 0x02
 b82:	c0 91 20 01 	lds	r28, 0x0120
 b86:	d0 91 21 01 	lds	r29, 0x0121
 b8a:	20 97       	sbiw	r28, 0x00	; 0
 b8c:	81 f4       	brne	.+32     	; 0xbae <free+0x3e>
 b8e:	20 81       	ld	r18, Z
 b90:	31 81       	ldd	r19, Z+1	; 0x01
 b92:	28 0f       	add	r18, r24
 b94:	39 1f       	adc	r19, r25
 b96:	80 91 1e 01 	lds	r24, 0x011E
 b9a:	90 91 1f 01 	lds	r25, 0x011F
 b9e:	82 17       	cp	r24, r18
 ba0:	93 07       	cpc	r25, r19
 ba2:	79 f5       	brne	.+94     	; 0xc02 <free+0x92>
 ba4:	f0 93 1f 01 	sts	0x011F, r31
 ba8:	e0 93 1e 01 	sts	0x011E, r30
 bac:	6d c0       	rjmp	.+218    	; 0xc88 <free+0x118>
 bae:	de 01       	movw	r26, r28
 bb0:	20 e0       	ldi	r18, 0x00	; 0
 bb2:	30 e0       	ldi	r19, 0x00	; 0
 bb4:	ae 17       	cp	r26, r30
 bb6:	bf 07       	cpc	r27, r31
 bb8:	50 f4       	brcc	.+20     	; 0xbce <free+0x5e>
 bba:	12 96       	adiw	r26, 0x02	; 2
 bbc:	4d 91       	ld	r20, X+
 bbe:	5c 91       	ld	r21, X
 bc0:	13 97       	sbiw	r26, 0x03	; 3
 bc2:	9d 01       	movw	r18, r26
 bc4:	41 15       	cp	r20, r1
 bc6:	51 05       	cpc	r21, r1
 bc8:	09 f1       	breq	.+66     	; 0xc0c <free+0x9c>
 bca:	da 01       	movw	r26, r20
 bcc:	f3 cf       	rjmp	.-26     	; 0xbb4 <free+0x44>
 bce:	b3 83       	std	Z+3, r27	; 0x03
 bd0:	a2 83       	std	Z+2, r26	; 0x02
 bd2:	40 81       	ld	r20, Z
 bd4:	51 81       	ldd	r21, Z+1	; 0x01
 bd6:	84 0f       	add	r24, r20
 bd8:	95 1f       	adc	r25, r21
 bda:	8a 17       	cp	r24, r26
 bdc:	9b 07       	cpc	r25, r27
 bde:	71 f4       	brne	.+28     	; 0xbfc <free+0x8c>
 be0:	8d 91       	ld	r24, X+
 be2:	9c 91       	ld	r25, X
 be4:	11 97       	sbiw	r26, 0x01	; 1
 be6:	84 0f       	add	r24, r20
 be8:	95 1f       	adc	r25, r21
 bea:	02 96       	adiw	r24, 0x02	; 2
 bec:	91 83       	std	Z+1, r25	; 0x01
 bee:	80 83       	st	Z, r24
 bf0:	12 96       	adiw	r26, 0x02	; 2
 bf2:	8d 91       	ld	r24, X+
 bf4:	9c 91       	ld	r25, X
 bf6:	13 97       	sbiw	r26, 0x03	; 3
 bf8:	93 83       	std	Z+3, r25	; 0x03
 bfa:	82 83       	std	Z+2, r24	; 0x02
 bfc:	21 15       	cp	r18, r1
 bfe:	31 05       	cpc	r19, r1
 c00:	29 f4       	brne	.+10     	; 0xc0c <free+0x9c>
 c02:	f0 93 21 01 	sts	0x0121, r31
 c06:	e0 93 20 01 	sts	0x0120, r30
 c0a:	3e c0       	rjmp	.+124    	; 0xc88 <free+0x118>
 c0c:	d9 01       	movw	r26, r18
 c0e:	13 96       	adiw	r26, 0x03	; 3
 c10:	fc 93       	st	X, r31
 c12:	ee 93       	st	-X, r30
 c14:	12 97       	sbiw	r26, 0x02	; 2
 c16:	4d 91       	ld	r20, X+
 c18:	5d 91       	ld	r21, X+
 c1a:	a4 0f       	add	r26, r20
 c1c:	b5 1f       	adc	r27, r21
 c1e:	ea 17       	cp	r30, r26
 c20:	fb 07       	cpc	r31, r27
 c22:	79 f4       	brne	.+30     	; 0xc42 <free+0xd2>
 c24:	80 81       	ld	r24, Z
 c26:	91 81       	ldd	r25, Z+1	; 0x01
 c28:	84 0f       	add	r24, r20
 c2a:	95 1f       	adc	r25, r21
 c2c:	02 96       	adiw	r24, 0x02	; 2
 c2e:	d9 01       	movw	r26, r18
 c30:	11 96       	adiw	r26, 0x01	; 1
 c32:	9c 93       	st	X, r25
 c34:	8e 93       	st	-X, r24
 c36:	82 81       	ldd	r24, Z+2	; 0x02
 c38:	93 81       	ldd	r25, Z+3	; 0x03
 c3a:	13 96       	adiw	r26, 0x03	; 3
 c3c:	9c 93       	st	X, r25
 c3e:	8e 93       	st	-X, r24
 c40:	12 97       	sbiw	r26, 0x02	; 2
 c42:	e0 e0       	ldi	r30, 0x00	; 0
 c44:	f0 e0       	ldi	r31, 0x00	; 0
 c46:	8a 81       	ldd	r24, Y+2	; 0x02
 c48:	9b 81       	ldd	r25, Y+3	; 0x03
 c4a:	00 97       	sbiw	r24, 0x00	; 0
 c4c:	19 f0       	breq	.+6      	; 0xc54 <free+0xe4>
 c4e:	fe 01       	movw	r30, r28
 c50:	ec 01       	movw	r28, r24
 c52:	f9 cf       	rjmp	.-14     	; 0xc46 <free+0xd6>
 c54:	ce 01       	movw	r24, r28
 c56:	02 96       	adiw	r24, 0x02	; 2
 c58:	28 81       	ld	r18, Y
 c5a:	39 81       	ldd	r19, Y+1	; 0x01
 c5c:	82 0f       	add	r24, r18
 c5e:	93 1f       	adc	r25, r19
 c60:	20 91 1e 01 	lds	r18, 0x011E
 c64:	30 91 1f 01 	lds	r19, 0x011F
 c68:	28 17       	cp	r18, r24
 c6a:	39 07       	cpc	r19, r25
 c6c:	69 f4       	brne	.+26     	; 0xc88 <free+0x118>
 c6e:	30 97       	sbiw	r30, 0x00	; 0
 c70:	29 f4       	brne	.+10     	; 0xc7c <free+0x10c>
 c72:	10 92 21 01 	sts	0x0121, r1
 c76:	10 92 20 01 	sts	0x0120, r1
 c7a:	02 c0       	rjmp	.+4      	; 0xc80 <free+0x110>
 c7c:	13 82       	std	Z+3, r1	; 0x03
 c7e:	12 82       	std	Z+2, r1	; 0x02
 c80:	d0 93 1f 01 	sts	0x011F, r29
 c84:	c0 93 1e 01 	sts	0x011E, r28
 c88:	df 91       	pop	r29
 c8a:	cf 91       	pop	r28
 c8c:	08 95       	ret

00000c8e <strnlen_P>:
 c8e:	fc 01       	movw	r30, r24
 c90:	05 90       	lpm	r0, Z+
 c92:	61 50       	subi	r22, 0x01	; 1
 c94:	70 40       	sbci	r23, 0x00	; 0
 c96:	01 10       	cpse	r0, r1
 c98:	d8 f7       	brcc	.-10     	; 0xc90 <strnlen_P+0x2>
 c9a:	80 95       	com	r24
 c9c:	90 95       	com	r25
 c9e:	8e 0f       	add	r24, r30
 ca0:	9f 1f       	adc	r25, r31
 ca2:	08 95       	ret

00000ca4 <memset>:
 ca4:	dc 01       	movw	r26, r24
 ca6:	01 c0       	rjmp	.+2      	; 0xcaa <memset+0x6>
 ca8:	6d 93       	st	X+, r22
 caa:	41 50       	subi	r20, 0x01	; 1
 cac:	50 40       	sbci	r21, 0x00	; 0
 cae:	e0 f7       	brcc	.-8      	; 0xca8 <memset+0x4>
 cb0:	08 95       	ret

00000cb2 <strnlen>:
 cb2:	fc 01       	movw	r30, r24
 cb4:	61 50       	subi	r22, 0x01	; 1
 cb6:	70 40       	sbci	r23, 0x00	; 0
 cb8:	01 90       	ld	r0, Z+
 cba:	01 10       	cpse	r0, r1
 cbc:	d8 f7       	brcc	.-10     	; 0xcb4 <strnlen+0x2>
 cbe:	80 95       	com	r24
 cc0:	90 95       	com	r25
 cc2:	8e 0f       	add	r24, r30
 cc4:	9f 1f       	adc	r25, r31
 cc6:	08 95       	ret

00000cc8 <fputc>:
 cc8:	0f 93       	push	r16
 cca:	1f 93       	push	r17
 ccc:	cf 93       	push	r28
 cce:	df 93       	push	r29
 cd0:	18 2f       	mov	r17, r24
 cd2:	09 2f       	mov	r16, r25
 cd4:	eb 01       	movw	r28, r22
 cd6:	8b 81       	ldd	r24, Y+3	; 0x03
 cd8:	81 fd       	sbrc	r24, 1
 cda:	03 c0       	rjmp	.+6      	; 0xce2 <fputc+0x1a>
 cdc:	8f ef       	ldi	r24, 0xFF	; 255
 cde:	9f ef       	ldi	r25, 0xFF	; 255
 ce0:	20 c0       	rjmp	.+64     	; 0xd22 <fputc+0x5a>
 ce2:	82 ff       	sbrs	r24, 2
 ce4:	10 c0       	rjmp	.+32     	; 0xd06 <fputc+0x3e>
 ce6:	4e 81       	ldd	r20, Y+6	; 0x06
 ce8:	5f 81       	ldd	r21, Y+7	; 0x07
 cea:	2c 81       	ldd	r18, Y+4	; 0x04
 cec:	3d 81       	ldd	r19, Y+5	; 0x05
 cee:	42 17       	cp	r20, r18
 cf0:	53 07       	cpc	r21, r19
 cf2:	7c f4       	brge	.+30     	; 0xd12 <fputc+0x4a>
 cf4:	e8 81       	ld	r30, Y
 cf6:	f9 81       	ldd	r31, Y+1	; 0x01
 cf8:	9f 01       	movw	r18, r30
 cfa:	2f 5f       	subi	r18, 0xFF	; 255
 cfc:	3f 4f       	sbci	r19, 0xFF	; 255
 cfe:	39 83       	std	Y+1, r19	; 0x01
 d00:	28 83       	st	Y, r18
 d02:	10 83       	st	Z, r17
 d04:	06 c0       	rjmp	.+12     	; 0xd12 <fputc+0x4a>
 d06:	e8 85       	ldd	r30, Y+8	; 0x08
 d08:	f9 85       	ldd	r31, Y+9	; 0x09
 d0a:	81 2f       	mov	r24, r17
 d0c:	09 95       	icall
 d0e:	89 2b       	or	r24, r25
 d10:	29 f7       	brne	.-54     	; 0xcdc <fputc+0x14>
 d12:	2e 81       	ldd	r18, Y+6	; 0x06
 d14:	3f 81       	ldd	r19, Y+7	; 0x07
 d16:	2f 5f       	subi	r18, 0xFF	; 255
 d18:	3f 4f       	sbci	r19, 0xFF	; 255
 d1a:	3f 83       	std	Y+7, r19	; 0x07
 d1c:	2e 83       	std	Y+6, r18	; 0x06
 d1e:	81 2f       	mov	r24, r17
 d20:	90 2f       	mov	r25, r16
 d22:	df 91       	pop	r29
 d24:	cf 91       	pop	r28
 d26:	1f 91       	pop	r17
 d28:	0f 91       	pop	r16
 d2a:	08 95       	ret

00000d2c <__ultoa_invert>:
 d2c:	fa 01       	movw	r30, r20
 d2e:	aa 27       	eor	r26, r26
 d30:	28 30       	cpi	r18, 0x08	; 8
 d32:	51 f1       	breq	.+84     	; 0xd88 <__ultoa_invert+0x5c>
 d34:	20 31       	cpi	r18, 0x10	; 16
 d36:	81 f1       	breq	.+96     	; 0xd98 <__ultoa_invert+0x6c>
 d38:	e8 94       	clt
 d3a:	6f 93       	push	r22
 d3c:	6e 7f       	andi	r22, 0xFE	; 254
 d3e:	6e 5f       	subi	r22, 0xFE	; 254
 d40:	7f 4f       	sbci	r23, 0xFF	; 255
 d42:	8f 4f       	sbci	r24, 0xFF	; 255
 d44:	9f 4f       	sbci	r25, 0xFF	; 255
 d46:	af 4f       	sbci	r26, 0xFF	; 255
 d48:	b1 e0       	ldi	r27, 0x01	; 1
 d4a:	3e d0       	rcall	.+124    	; 0xdc8 <__ultoa_invert+0x9c>
 d4c:	b4 e0       	ldi	r27, 0x04	; 4
 d4e:	3c d0       	rcall	.+120    	; 0xdc8 <__ultoa_invert+0x9c>
 d50:	67 0f       	add	r22, r23
 d52:	78 1f       	adc	r23, r24
 d54:	89 1f       	adc	r24, r25
 d56:	9a 1f       	adc	r25, r26
 d58:	a1 1d       	adc	r26, r1
 d5a:	68 0f       	add	r22, r24
 d5c:	79 1f       	adc	r23, r25
 d5e:	8a 1f       	adc	r24, r26
 d60:	91 1d       	adc	r25, r1
 d62:	a1 1d       	adc	r26, r1
 d64:	6a 0f       	add	r22, r26
 d66:	71 1d       	adc	r23, r1
 d68:	81 1d       	adc	r24, r1
 d6a:	91 1d       	adc	r25, r1
 d6c:	a1 1d       	adc	r26, r1
 d6e:	20 d0       	rcall	.+64     	; 0xdb0 <__ultoa_invert+0x84>
 d70:	09 f4       	brne	.+2      	; 0xd74 <__ultoa_invert+0x48>
 d72:	68 94       	set
 d74:	3f 91       	pop	r19
 d76:	2a e0       	ldi	r18, 0x0A	; 10
 d78:	26 9f       	mul	r18, r22
 d7a:	11 24       	eor	r1, r1
 d7c:	30 19       	sub	r19, r0
 d7e:	30 5d       	subi	r19, 0xD0	; 208
 d80:	31 93       	st	Z+, r19
 d82:	de f6       	brtc	.-74     	; 0xd3a <__ultoa_invert+0xe>
 d84:	cf 01       	movw	r24, r30
 d86:	08 95       	ret
 d88:	46 2f       	mov	r20, r22
 d8a:	47 70       	andi	r20, 0x07	; 7
 d8c:	40 5d       	subi	r20, 0xD0	; 208
 d8e:	41 93       	st	Z+, r20
 d90:	b3 e0       	ldi	r27, 0x03	; 3
 d92:	0f d0       	rcall	.+30     	; 0xdb2 <__ultoa_invert+0x86>
 d94:	c9 f7       	brne	.-14     	; 0xd88 <__ultoa_invert+0x5c>
 d96:	f6 cf       	rjmp	.-20     	; 0xd84 <__ultoa_invert+0x58>
 d98:	46 2f       	mov	r20, r22
 d9a:	4f 70       	andi	r20, 0x0F	; 15
 d9c:	40 5d       	subi	r20, 0xD0	; 208
 d9e:	4a 33       	cpi	r20, 0x3A	; 58
 da0:	18 f0       	brcs	.+6      	; 0xda8 <__ultoa_invert+0x7c>
 da2:	49 5d       	subi	r20, 0xD9	; 217
 da4:	31 fd       	sbrc	r19, 1
 da6:	40 52       	subi	r20, 0x20	; 32
 da8:	41 93       	st	Z+, r20
 daa:	02 d0       	rcall	.+4      	; 0xdb0 <__ultoa_invert+0x84>
 dac:	a9 f7       	brne	.-22     	; 0xd98 <__ultoa_invert+0x6c>
 dae:	ea cf       	rjmp	.-44     	; 0xd84 <__ultoa_invert+0x58>
 db0:	b4 e0       	ldi	r27, 0x04	; 4
 db2:	a6 95       	lsr	r26
 db4:	97 95       	ror	r25
 db6:	87 95       	ror	r24
 db8:	77 95       	ror	r23
 dba:	67 95       	ror	r22
 dbc:	ba 95       	dec	r27
 dbe:	c9 f7       	brne	.-14     	; 0xdb2 <__ultoa_invert+0x86>
 dc0:	00 97       	sbiw	r24, 0x00	; 0
 dc2:	61 05       	cpc	r22, r1
 dc4:	71 05       	cpc	r23, r1
 dc6:	08 95       	ret
 dc8:	9b 01       	movw	r18, r22
 dca:	ac 01       	movw	r20, r24
 dcc:	0a 2e       	mov	r0, r26
 dce:	06 94       	lsr	r0
 dd0:	57 95       	ror	r21
 dd2:	47 95       	ror	r20
 dd4:	37 95       	ror	r19
 dd6:	27 95       	ror	r18
 dd8:	ba 95       	dec	r27
 dda:	c9 f7       	brne	.-14     	; 0xdce <__ultoa_invert+0xa2>
 ddc:	62 0f       	add	r22, r18
 dde:	73 1f       	adc	r23, r19
 de0:	84 1f       	adc	r24, r20
 de2:	95 1f       	adc	r25, r21
 de4:	a0 1d       	adc	r26, r0
 de6:	08 95       	ret

00000de8 <__prologue_saves__>:
 de8:	2f 92       	push	r2
 dea:	3f 92       	push	r3
 dec:	4f 92       	push	r4
 dee:	5f 92       	push	r5
 df0:	6f 92       	push	r6
 df2:	7f 92       	push	r7
 df4:	8f 92       	push	r8
 df6:	9f 92       	push	r9
 df8:	af 92       	push	r10
 dfa:	bf 92       	push	r11
 dfc:	cf 92       	push	r12
 dfe:	df 92       	push	r13
 e00:	ef 92       	push	r14
 e02:	ff 92       	push	r15
 e04:	0f 93       	push	r16
 e06:	1f 93       	push	r17
 e08:	cf 93       	push	r28
 e0a:	df 93       	push	r29
 e0c:	cd b7       	in	r28, 0x3d	; 61
 e0e:	de b7       	in	r29, 0x3e	; 62
 e10:	ca 1b       	sub	r28, r26
 e12:	db 0b       	sbc	r29, r27
 e14:	0f b6       	in	r0, 0x3f	; 63
 e16:	f8 94       	cli
 e18:	de bf       	out	0x3e, r29	; 62
 e1a:	0f be       	out	0x3f, r0	; 63
 e1c:	cd bf       	out	0x3d, r28	; 61
 e1e:	09 94       	ijmp

00000e20 <__epilogue_restores__>:
 e20:	2a 88       	ldd	r2, Y+18	; 0x12
 e22:	39 88       	ldd	r3, Y+17	; 0x11
 e24:	48 88       	ldd	r4, Y+16	; 0x10
 e26:	5f 84       	ldd	r5, Y+15	; 0x0f
 e28:	6e 84       	ldd	r6, Y+14	; 0x0e
 e2a:	7d 84       	ldd	r7, Y+13	; 0x0d
 e2c:	8c 84       	ldd	r8, Y+12	; 0x0c
 e2e:	9b 84       	ldd	r9, Y+11	; 0x0b
 e30:	aa 84       	ldd	r10, Y+10	; 0x0a
 e32:	b9 84       	ldd	r11, Y+9	; 0x09
 e34:	c8 84       	ldd	r12, Y+8	; 0x08
 e36:	df 80       	ldd	r13, Y+7	; 0x07
 e38:	ee 80       	ldd	r14, Y+6	; 0x06
 e3a:	fd 80       	ldd	r15, Y+5	; 0x05
 e3c:	0c 81       	ldd	r16, Y+4	; 0x04
 e3e:	1b 81       	ldd	r17, Y+3	; 0x03
 e40:	aa 81       	ldd	r26, Y+2	; 0x02
 e42:	b9 81       	ldd	r27, Y+1	; 0x01
 e44:	ce 0f       	add	r28, r30
 e46:	d1 1d       	adc	r29, r1
 e48:	0f b6       	in	r0, 0x3f	; 63
 e4a:	f8 94       	cli
 e4c:	de bf       	out	0x3e, r29	; 62
 e4e:	0f be       	out	0x3f, r0	; 63
 e50:	cd bf       	out	0x3d, r28	; 61
 e52:	ed 01       	movw	r28, r26
 e54:	08 95       	ret

00000e56 <_exit>:
 e56:	f8 94       	cli

00000e58 <__stop_program>:
 e58:	ff cf       	rjmp	.-2      	; 0xe58 <__stop_program>
